(dp1
S'output'
p2
S"<type 'exceptions.AttributeError'> 'Row' object has no attribute 'auth_user'"
p3
sS'layer'
p4
S'/Users/adin/Work/SIRI/TimeClock/siri/applications/siriadmin/views/timeclock/mentortrack.html'
p5
sS'code'
p6
S'response.write(\'<!--[if HTML5]><![endif]-->\\n<!DOCTYPE html>\\n<!-- paulirish.com/2008/conditional-stylesheets-vs-css-hacks-answer-neither/ -->\\n<!--[if lt IE 7]><html class="ie ie6 ie-lte9 ie-lte8 ie-lte7 no-js" lang="\', escape=False)\nresponse.write(T.accepted_language or \'en\')\nresponse.write(\'"> <![endif]-->\\n<!--[if IE 7]><html class="ie ie7 ie-lte9 ie-lte8 ie-lte7 no-js" lang="\', escape=False)\nresponse.write(T.accepted_language or \'en\')\nresponse.write(\'"> <![endif]-->\\n<!--[if IE 8]><html class="ie ie8 ie-lte9 ie-lte8 no-js" lang="\', escape=False)\nresponse.write(T.accepted_language or \'en\')\nresponse.write(\'"> <![endif]-->\\n<!--[if IE 9]><html class="ie9 ie-lte9 no-js" lang="\', escape=False)\nresponse.write(T.accepted_language or \'en\')\nresponse.write(\'"> <![endif]-->\\n<!--[if (gt IE 9)|!(IE)]><!--> <html class="no-js" lang="\', escape=False)\nresponse.write(T.accepted_language or \'en\')\nresponse.write(\'"> <!--<![endif]-->\\n<head>\\n<title>\', escape=False)\nresponse.write(response.title or request.application)\nresponse.write(\'</title>\\n  <!--[if !HTML5]>\\n      <meta http-equiv="X-UA-Compatible" content="IE=edge\', escape=False)\nresponse.write(not request.is_local and \',chrome=1\' or \'\')\nresponse.write(\'">\\n  <![endif]-->\\n  <!-- www.phpied.com/conditional-comments-block-downloads/ -->\\n  <!-- Always force latest IE rendering engine\\n       (even in intranet) & Chrome Frame\\n       Remove this if you use the .htaccess -->\\n\\t   \\n  <meta charset="utf-8" />\\n\\n  <!-- http://dev.w3.org/html5/markup/meta.name.html -->\\n  <meta name="application-name" content="\', escape=False)\nresponse.write(request.application)\nresponse.write(\'" />\\n\\n  <!-- Speaking of Google, don\\\'t forget to set your site up:\\n       http://google.com/webmasters -->\\n  <meta name="google-site-verification" content="" />\\n\\n  <!--  Mobile Viewport Fix\\n        j.mp/mobileviewport & davidbcalhoun.com/2010/viewport-metatag\\n        device-width: Occupy full width of the screen in its current orientation\\n        initial-scale = 1.0 retains dimensions instead of zooming out if page height > device height\\n        user-scalable = yes allows the user to zoom in -->\\n  <meta name="viewport" content="width=device-width, initial-scale=1.0" />\\n\\n  <link rel="shortcut icon" href="\', escape=False)\nresponse.write(URL(\'static\',\'images/favicon.ico\'))\nresponse.write(\'" type="image/x-icon">\\n  <link rel="apple-touch-icon" href="\', escape=False)\nresponse.write(URL(\'static\',\'images/favicon.png\'))\nresponse.write(\'">\\n\\n  <!-- All JavaScript at the bottom, except for Modernizr which enables\\n       HTML5 elements & feature detects -->\\n  <script src="\', escape=False)\nresponse.write(URL(\'static\',\'js/modernizr.custom.js\'))\nresponse.write(\'"></script>\\n\\n  <!-- include stylesheets -->\\n  \', escape=False)\nresponse.files.append(URL(\'static\',\'css/web2py.css\'))\nresponse.files.append(URL(\'static\',\'css/bootstrap.min.css\'))\nresponse.files.append(URL(\'static\',\'css/bootstrap-responsive.min.css\'))\nresponse.files.append(URL(\'static\',\'css/web2py_bootstrap.css\'))\nresponse.write(\'\\n\\n  \', escape=False)\nresponse.write(\'<script type="text/javascript"><!--\\n    // These variables are used by the web2py_ajax_init function in web2py_ajax.js (which is loaded below).\\n    var w2p_ajax_confirm_message = "\', escape=False)\nresponse.write(T(\'Are you sure you want to delete this object?\'))\nresponse.write(\'";\\n    var w2p_ajax_date_format = "\', escape=False)\nresponse.write(T(\'%m/%d/%Y\'))\nresponse.write(\'";\\n    var w2p_ajax_datetime_format = "\', escape=False)\nresponse.write(T(\'%m/%d/%Y %H:%M:%S\'))\nresponse.write(\'";\\n    var ajax_error_500 = \\\'\', escape=False)\nresponse.write(XML(T(\'An error occured, please %s the page\') % A(T(\'reload\'), _href=URL(args=request.args, vars=request.get_vars))))\nresponse.write("\'\\n    //--></script>\\n", escape=False)\nresponse.files.insert(0,URL(\'static\',\'js/jquery.js\'))\nresponse.files.insert(1,URL(\'static\',\'css/calendar.css\'))\nresponse.files.insert(2,URL(\'static\',\'js/calendar.js\'))\nresponse.files.insert(3,URL(\'static\',\'js/web2py.js\'))\nresponse.include_meta()\nresponse.include_files()\nresponse.write(\'\\n\', escape=False)\nresponse.write(\'\\n\\n  \', escape=False)\n# using sidebars need to know what sidebar you want to use\nleft_sidebar_enabled = globals().get(\'left_sidebar_enabled\',False)\nright_sidebar_enabled = globals().get(\'right_sidebar_enabled\',False)\nmiddle_columns = {0:\'span12\',1:\'span9\',2:\'span6\'}[\n(left_sidebar_enabled and 1 or 0)+(right_sidebar_enabled and 1 or 0)]\nresponse.write(\'\\n\\n  <!-- uncomment here to load jquery-ui\\n       <link rel="stylesheet" href="http://ajax.googleapis.com/ajax/libs/jqueryui/1.8.16/themes/base/jquery-ui.css" type="text/css" media="all" />\\n       <script src="http://ajax.googleapis.com/ajax/libs/jqueryui/1.8.16/jquery-ui.min.js" type="text/javascript"></script>\\n       uncomment to load jquery-ui //-->\\n  <noscript><link href="\', escape=False)\nresponse.write(URL(\'static\', \'css/web2py_bootstrap_nojs.css\'))\nresponse.write(\'" rel="stylesheet" type="text/css" /></noscript>\\n  \', escape=False)\nresponse.write(\'\\n</head>\\n\\n<body>\\n  <!-- Navbar ================================================== -->\\n  <div class="navbar navbar-inverse navbar-fixed-top">\\n    <div class="flash">\', escape=False)\nresponse.write(response.flash or \'\')\nresponse.write(\'</div>\\n    <div class="navbar-inner">\\n      <div class="container">\\n        <!-- the next tag is necessary for bootstrap menus, do not remove -->\\n        <button type="button" class="btn btn-navbar" data-toggle="collapse" data-target=".nav-collapse">\\n          <span class="icon-bar"></span>\\n          <span class="icon-bar"></span>\\n          <span class="icon-bar"></span>\\n        </button>\\n\\t\', escape=False)\nresponse.write(response.logo or \'\')\nresponse.write(\'\\n        <ul id="navbar" class="nav pull-right">\', escape=False)\nresponse.write(\'auth\' in globals() and auth.navbar(mode="dropdown") or \'\')\nresponse.write(\'</ul>\\n        <div class="nav-collapse">\\n          \', escape=False)\nis_mobile=request.user_agent().is_mobile\nresponse.write(\'\\n          \', escape=False)\nif response.menu:\n    response.write(\'\\n          \', escape=False)\n    response.write(MENU(response.menu, _class=\'mobile-menu nav\' if is_mobile else \'nav\',mobile=is_mobile,li_class=\'dropdown\',ul_class=\'dropdown-menu\'))\n    response.write(\'\\n          \', escape=False)\n    pass\nresponse.write(\'\\n        </div><!--/.nav-collapse -->\\n      </div>\\n    </div>\\n  </div><!--/top navbar -->\\n\\n  <div class="container">\\n    <!-- Masthead ================================================== -->\\n    <header class="mastheader row" id="header">\\n      \', escape=False)\nif response.title:\n    response.write(\'\\n        <div class="span12">\\n            <div class="page-header">\\n                <h1>\\n                    \', escape=False)\n    response.write(response.title)\n    response.write(\'\\n                    <small>\', escape=False)\n    response.write(response.subtitle or \'\')\n    response.write(\'</small>\\n                </h1>\\n            </div>\\n        </div>\\n\\t\', escape=False)\n    pass\nresponse.write(\'\\n    </header>\\n\\n    <section id="main" class="main row">\\n        \', escape=False)\nif left_sidebar_enabled:\n    response.write(\'\\n        <div class="span3 left-sidebar">\\n            \', escape=False)\n    response.write(\'\\n            <h3>Left Sidebar</h3>\\n            <p></p>\\n            \', escape=False)\n    response.write(\'\\n        </div>\\n        \', escape=False)\n    pass\nresponse.write(\'\\n\\n        <div class="\', escape=False)\nresponse.write(middle_columns)\nresponse.write(\'">\\n            \', escape=False)\nresponse.write(\'\\n            \', escape=False)\nresponse.write(\'\\n<h1>This is the timeclock/mentortrack.html template</h1>\\n\', escape=False)\nresponse.write(BEAUTIFY(response._vars))\nresponse.write(\'\\n            \', escape=False)\nresponse.write(\'\\n        </div>\\n\\n        \', escape=False)\nif right_sidebar_enabled:\n    response.write(\'\\n        <div class="span3">\\n            \', escape=False)\n    response.write(\'\\n            <h3>Right Sidebar</h3>\\n            <p></p>\\n            \', escape=False)\n    response.write(\'\\n        </div>\\n        \', escape=False)\n    pass\nresponse.write(\'\\n    </section><!--/main-->\\n\\n    <!-- Footer ================================================== -->\\n    <div class="row">\\n        <footer class="footer span12" id="footer">\\n            <div class="footer-content">\\n                \', escape=False)\nresponse.write(\' <!-- this is default footer -->\\n                <div class="copyright pull-left">\', escape=False)\nresponse.write(T(\'Copyright\'))\nresponse.write(\' &#169; \', escape=False)\nresponse.write(request.now.year)\nresponse.write(\'</div>\\n                <div id="poweredBy" class="pull-right">\\n                    \', escape=False)\nresponse.write(T(\'Powered by\'))\nresponse.write(\'\\n                    <a href="http://www.web2py.com/">web2py</a>\\n                </div>\\n                \', escape=False)\nresponse.write(\'\\n            </div>\\n        </footer>\\n    </div>\\n\\n  </div> <!-- /container -->\\n\\n  <!-- The javascript =============================================\\n       (Placed at the end of the document so the pages load faster) -->\\n  <script src="\', escape=False)\nresponse.write(URL(\'static\',\'js/bootstrap.min.js\'))\nresponse.write(\'"></script>\\n  <script src="\', escape=False)\nresponse.write(URL(\'static\',\'js/web2py_bootstrap.js\'))\nresponse.write(\'"></script>\\n  <!--[if lt IE 7 ]>\\n      <script src="\', escape=False)\nresponse.write(URL(\'static\',\'js/dd_belatedpng.js\'))\nresponse.write(\'"></script>\\n      <script> DD_belatedPNG.fix(\\\'img, .png_bg\\\'); //fix any <img> or .png_bg background-images </script>\\n      <![endif]-->\\n  \\n  \', escape=False)\nif response.google_analytics_id:\n    response.write(\'\\n  <script src="\', escape=False)\n    response.write(URL(\'static\',\'js/analytics.min.js\'))\n    response.write(\'"></script>\\n  <script type="text/javascript">\\n  analytics.initialize({\\n    \\\'Google Analytics\\\':{trackingId:\\\'\', escape=False)\n    response.write(response.google_analytics_id)\n    response.write("\'} \\n  });</script>\\n  ", escape=False)\n    pass\nresponse.write(\'\\n  <script src="\', escape=False)\nresponse.write(URL(\'static\',\'js/share.js\',vars=dict(static=URL(\'static\',\'images\'))))\nresponse.write(\'"></script>\\n</body>\\n</html>\\n\\n\', escape=False)'
p7
sS'snapshot'
p8
(dp9
S'exception'
p10
(dp11
S'__hash__'
p12
S"<method-wrapper '__hash__' of exceptions.AttributeError object>"
p13
sS'__setattr__'
p14
S"<method-wrapper '__setattr__' of exceptions.AttributeError object>"
p15
sS'__reduce_ex__'
p16
S'<built-in method __reduce_ex__ of exceptions.AttributeError object>'
p17
sS'__getslice__'
p18
S"<method-wrapper '__getslice__' of exceptions.AttributeError object>"
p19
sS'__getitem__'
p20
S"<method-wrapper '__getitem__' of exceptions.AttributeError object>"
p21
sS'__setstate__'
p22
S'<built-in method __setstate__ of exceptions.AttributeError object>'
p23
sS'args'
p24
S'("\'Row\' object has no attribute \'auth_user\'",)'
p25
sS'__reduce__'
p26
S'<built-in method __reduce__ of exceptions.AttributeError object>'
p27
sS'__str__'
p28
S"<method-wrapper '__str__' of exceptions.AttributeError object>"
p29
sS'__format__'
p30
S'<built-in method __format__ of exceptions.AttributeError object>'
p31
sS'__getattribute__'
p32
S"<method-wrapper '__getattribute__' of exceptions.AttributeError object>"
p33
sS'__class__'
p34
S"<type 'exceptions.AttributeError'>"
p35
sS'__unicode__'
p36
S'<built-in method __unicode__ of exceptions.AttributeError object>'
p37
sS'__delattr__'
p38
S"<method-wrapper '__delattr__' of exceptions.AttributeError object>"
p39
sS'__subclasshook__'
p40
S'<built-in method __subclasshook__ of type object>'
p41
sS'__repr__'
p42
S"<method-wrapper '__repr__' of exceptions.AttributeError object>"
p43
sS'__dict__'
p44
S'{}'
p45
sS'__sizeof__'
p46
S'<built-in method __sizeof__ of exceptions.AttributeError object>'
p47
sS'__doc__'
p48
S"'Attribute not found.'"
p49
sS'__init__'
p50
S"<method-wrapper '__init__' of exceptions.AttributeError object>"
p51
sS'__new__'
p52
S'<built-in method __new__ of type object>'
p53
ssS'evalue'
p54
S"'Row' object has no attribute 'auth_user'"
p55
sS'request'
p56
cgluon.html
XML_unpickle
p57
(S's\x1cY\x00\x00<div><table><tr><td style="font-weight:bold;vertical-align:top">ajax</td><td valign="top">:</td><td><div>False</div></td></tr><tr><td style="font-weight:bold;vertical-align:top">application</td><td valign="top">:</td><td><div>siriadmin</div></td></tr><tr><td style="font-weight:bold;vertical-align:top">args</td><td valign="top">:</td><td><div><table></table></div></td></tr><tr><td style="font-weight:bold;vertical-align:top">body</td><td valign="top">:</td><td><div>&lt;cStringIO.StringO object at 0x11196ab90&gt;</div></td></tr><tr><td style="font-weight:bold;vertical-align:top">cid</td><td valign="top">:</td><td><div>None</div></td></tr><tr><td style="font-weight:bold;vertical-align:top">client</td><td valign="top">:</td><td><div>127.0.0.1</div></td></tr><tr><td style="font-weight:bold;vertical-align:top">controller</td><td valign="top">:</td><td><div>timeclock</div></td></tr><tr><td style="font-weight:bold;vertical-align:top">cookies</td><td valign="top">:</td><td><div><table><tr><td style="font-weight:bold;vertical-align:top">session_id_admin</td><td valign="top">:</td><td><div>127.0.0.1-ebe5ca4f-6391-4175-8c8b-d9562a433670<table><tr><td style="font-weight:bold;vertical-align:top">comment</td><td valign="top">:</td><td><div></div></td></tr><tr><td style="font-weight:bold;vertical-align:top">domain</td><td valign="top">:</td><td><div></div></td></tr><tr><td style="font-weight:bold;vertical-align:top">expires</td><td valign="top">:</td><td><div></div></td></tr><tr><td style="font-weight:bold;vertical-align:top">httponly</td><td valign="top">:</td><td><div></div></td></tr><tr><td style="font-weight:bold;vertical-align:top">max-age</td><td valign="top">:</td><td><div></div></td></tr><tr><td style="font-weight:bold;vertical-align:top">path</td><td valign="top">:</td><td><div></div></td></tr><tr><td style="font-weight:bold;vertical-align:top">secure</td><td valign="top">:</td><td><div></div></td></tr><tr><td style="font-weight:bold;vertical-align:top">version</td><td valign="top">:</td><td><div></div></td></tr></table></div></td></tr><tr><td style="font-weight:bold;vertical-align:top">session_id_siriadmin</td><td valign="top">:</td><td><div>127.0.0.1-035af0be-6b4f-4ced-83c8-beb0fbc5c152<table><tr><td style="font-weight:bold;vertical-align:top">comment</td><td valign="top">:</td><td><div></div></td></tr><tr><td style="font-weight:bold;vertical-align:top">domain</td><td valign="top">:</td><td><div></div></td></tr><tr><td style="font-weight:bold;vertical-align:top">expires</td><td valign="top">:</td><td><div></div></td></tr><tr><td style="font-weight:bold;vertical-align:top">httponly</td><td valign="top">:</td><td><div></div></td></tr><tr><td style="font-weight:bold;vertical-align:top">max-age</td><td valign="top">:</td><td><div></div></td></tr><tr><td style="font-weight:bold;vertical-align:top">path</td><td valign="top">:</td><td><div></div></td></tr><tr><td style="font-weight:bold;vertical-align:top">secure</td><td valign="top">:</td><td><div></div></td></tr><tr><td style="font-weight:bold;vertical-align:top">version</td><td valign="top">:</td><td><div></div></td></tr></table></div></td></tr><tr><td style="font-weight:bold;vertical-align:top">session_id_welcome</td><td valign="top">:</td><td><div>127.0.0.1-99bb6ee0-0784-458b-9aa9-1f0712b27d48<table><tr><td style="font-weight:bold;vertical-align:top">comment</td><td valign="top">:</td><td><div></div></td></tr><tr><td style="font-weight:bold;vertical-align:top">domain</td><td valign="top">:</td><td><div></div></td></tr><tr><td style="font-weight:bold;vertical-align:top">expires</td><td valign="top">:</td><td><div></div></td></tr><tr><td style="font-weight:bold;vertical-align:top">httponly</td><td valign="top">:</td><td><div></div></td></tr><tr><td style="font-weight:bold;vertical-align:top">max-age</td><td valign="top">:</td><td><div></div></td></tr><tr><td style="font-weight:bold;vertical-align:top">path</td><td valign="top">:</td><td><div></div></td></tr><tr><td style="font-weight:bold;vertical-align:top">secure</td><td valign="top">:</td><td><div></div></td></tr><tr><td style="font-weight:bold;vertical-align:top">version</td><td valign="top">:</td><td><div></div></td></tr></table></div></td></tr></table></div></td></tr><tr><td style="font-weight:bold;vertical-align:top">env</td><td valign="top">:</td><td><div><table><tr><td style="font-weight:bold;vertical-align:top">app_folders</td><td valign="top">:</td><td><div>set([&#x27;/Users/adin/Work/SIRI/TimeClock/siri/applications/welcome/&#x27;, &#x27;/Users/adin/Work/SIRI/TimeClock/siri/applications/admin/&#x27;, &#x27;/Users/adin/Work/SIRI/TimeClock/siri/applications/siriadmin/&#x27;])</div></td></tr><tr><td style="font-weight:bold;vertical-align:top">applications_parent</td><td valign="top">:</td><td><div>/Users/adin/Work/SIRI/TimeClock/siri</div></td></tr><tr><td style="font-weight:bold;vertical-align:top">cmd_args</td><td valign="top">:</td><td><div><table></table></div></td></tr><tr><td style="font-weight:bold;vertical-align:top">cmd_options</td><td valign="top">:</td><td><div>&lt;Values at 0x1092cabd8: {&#x27;verbose&#x27;: False, &#x27;ip&#x27;: &#x27;127.0.0.1&#x27;, &#x27;with_scheduler&#x27;: False, &#x27;ips&#x27;: [&#x27;fe80::3e07:54ff:fe4e:bf0a%en1&#x27;, &#x27;fe80::3e07:54ff:fe4e:bf0a%en0&#x27;, &#x27;10.5.151.202&#x27;, &#x27;fe80::6aa8:6dff:fe1b:d9f2%en1&#x27;, &#x27;fe80::6aa8:6dff:fe1b:d9f2%en0&#x27;, &#x27;10.5.151.173&#x27;], &#x27;shutdown_timeout&#x27;: 5, &#x27;taskbar&#x27;: False, &#x27;with_coverage&#x27;: False, &#x27;port&#x27;: 8000, &#x27;maxthreads&#x27;: None, &#x27;softcron&#x27;: False, &#x27;server_name&#x27;: &#x27;Aphro.local&#x27;, &#x27;bpython&#x27;: False, &#x27;nogui&#x27;: False, &#x27;pid_filename&#x27;: &#x27;httpserver.pid&#x27;, &#x27;extcron&#x27;: False, &#x27;runcron&#x27;: False, &#x27;run_system_tests&#x27;: False, &#x27;test&#x27;: None, &#x27;folder&#x27;: &#x27;/Users/adin/Work/SIRI/TimeClock/siri&#x27;, &#x27;config&#x27;: &#x27;&#x27;, &#x27;minthreads&#x27;: None, &#x27;winservice&#x27;: &#x27;&#x27;, &#x27;shell&#x27;: None, &#x27;run&#x27;: &#x27;&#x27;, &#x27;log_filename&#x27;: &#x27;httpserver.log&#x27;, &#x27;debuglevel&#x27;: 30, &#x27;args&#x27;: [&#x27;&#x27;], &#x27;socket_timeout&#x27;: 5, &#x27;ssl_ca_certificate&#x27;: None, &#x27;scheduler&#x27;: None, &#x27;profiler_filename&#x27;: None, &#x27;ssl_private_key&#x27;: &#x27;&#x27;, &#x27;scheduler_groups&#x27;: None, &#x27;password&#x27;: &#x27;&lt;ask&gt;&#x27;, &#x27;request_queue_size&#x27;: 5, &#x27;ssl_certificate&#x27;: &#x27;&#x27;, &#x27;cronjob&#x27;: False, &#x27;numthreads&#x27;: None, &#x27;quiet&#x27;: False, &#x27;interfaces&#x27;: None, &#x27;import_models&#x27;: False, &#x27;timeout&#x27;: 10, &#x27;plain&#x27;: False, &#x27;nobanner&#x27;: False}&gt;</div></td></tr><tr><td style="font-weight:bold;vertical-align:top">db_sessions</td><td valign="top">:</td><td><div>set([])</div></td></tr><tr><td style="font-weight:bold;vertical-align:top">debugging</td><td valign="top">:</td><td><div>True</div></td></tr><tr><td style="font-weight:bold;vertical-align:top">gluon_parent</td><td valign="top">:</td><td><div>/Users/adin/Work/SIRI/TimeClock/siri</div></td></tr><tr><td style="font-weight:bold;vertical-align:top">http_accept</td><td valign="top">:</td><td><div>text/html,application/xhtml+xml,application/xml;q=0.9,*/*;q=0.8</div></td></tr><tr><td style="font-weight:bold;vertical-align:top">http_accept_encoding</td><td valign="top">:</td><td><div>gzip, deflate</div></td></tr><tr><td style="font-weight:bold;vertical-align:top">http_accept_language</td><td valign="top">:</td><td><div>en-US,en;q=0.5</div></td></tr><tr><td style="font-weight:bold;vertical-align:top">http_cache_control</td><td valign="top">:</td><td><div>max-age=0</div></td></tr><tr><td style="font-weight:bold;vertical-align:top">http_connection</td><td valign="top">:</td><td><div>keep-alive</div></td></tr><tr><td style="font-weight:bold;vertical-align:top">http_cookie</td><td valign="top">:</td><td><div>session_id_welcome=127.0.0.1-99bb6ee0-0784-458b-9aa9-1f0712b27d48; session_id_admin=127.0.0.1-ebe5ca4f-6391-4175-8c8b-d9562a433670; session_id_siriadmin=127.0.0.1-035af0be-6b4f-4ced-83c8-beb0fbc5c152</div></td></tr><tr><td style="font-weight:bold;vertical-align:top">http_dnt</td><td valign="top">:</td><td><div>1</div></td></tr><tr><td style="font-weight:bold;vertical-align:top">http_host</td><td valign="top">:</td><td><div>127.0.0.1:8000</div></td></tr><tr><td style="font-weight:bold;vertical-align:top">http_user_agent</td><td valign="top">:</td><td><div>Mozilla/5.0 (Macintosh; Intel Mac OS X 10.9; rv:26.0) Gecko/20100101 Firefox/26.0</div></td></tr><tr><td style="font-weight:bold;vertical-align:top">is_jython</td><td valign="top">:</td><td><div>False</div></td></tr><tr><td style="font-weight:bold;vertical-align:top">is_pypy</td><td valign="top">:</td><td><div>False</div></td></tr><tr><td style="font-weight:bold;vertical-align:top">local_hosts</td><td valign="top">:</td><td><div><table><tr><td><div>fe80::3e07:54ff:fe4e:bf0a%en1</div></td></tr><tr><td><div>fe80::3e07:54ff:fe4e:bf0a%en0</div></td></tr><tr><td><div>Aphro.local</div></td></tr><tr><td><div>::ffff:127.0.0.1</div></td></tr><tr><td><div>::1</div></td></tr><tr><td><div>10.5.151.202</div></td></tr><tr><td><div>fe80::6aa8:6dff:fe1b:d9f2%en1</div></td></tr><tr><td><div>fe80::6aa8:6dff:fe1b:d9f2%en0</div></td></tr><tr><td><div>10.5.151.173</div></td></tr><tr><td><div>127.0.0.1</div></td></tr></table></div></td></tr><tr><td style="font-weight:bold;vertical-align:top">path_info</td><td valign="top">:</td><td><div>/siriadmin/timeclock/mentortrack</div></td></tr><tr><td style="font-weight:bold;vertical-align:top">query_string</td><td valign="top">:</td><td><div></div></td></tr><tr><td style="font-weight:bold;vertical-align:top">remote_addr</td><td valign="top">:</td><td><div>127.0.0.1</div></td></tr><tr><td style="font-weight:bold;vertical-align:top">remote_port</td><td valign="top">:</td><td><div>64753</div></td></tr><tr><td style="font-weight:bold;vertical-align:top">request_method</td><td valign="top">:</td><td><div>GET</div></td></tr><tr><td style="font-weight:bold;vertical-align:top">request_uri</td><td valign="top">:</td><td><div>/siriadmin/timeclock/mentortrack</div></td></tr><tr><td style="font-weight:bold;vertical-align:top">script_name</td><td valign="top">:</td><td><div></div></td></tr><tr><td style="font-weight:bold;vertical-align:top">server_name</td><td valign="top">:</td><td><div>Aphro.local</div></td></tr><tr><td style="font-weight:bold;vertical-align:top">server_port</td><td valign="top">:</td><td><div>8000</div></td></tr><tr><td style="font-weight:bold;vertical-align:top">server_protocol</td><td valign="top">:</td><td><div>HTTP/1.1</div></td></tr><tr><td style="font-weight:bold;vertical-align:top">server_software</td><td valign="top">:</td><td><div>Rocket 1.2.6</div></td></tr><tr><td style="font-weight:bold;vertical-align:top">web2py_path</td><td valign="top">:</td><td><div>/Users/adin/Work/SIRI/TimeClock/siri</div></td></tr><tr><td style="font-weight:bold;vertical-align:top">web2py_version</td><td valign="top">:</td><td><div>2.5.1-stable+timestamp.2013.06.06.15.39.19</div></td></tr><tr><td style="font-weight:bold;vertical-align:top">wsgi_errors</td><td valign="top">:</td><td><div>&lt;open file &#x27;&lt;stderr&gt;&#x27;, mode &#x27;w&#x27; at 0x1084bb1e0&gt;</div></td></tr><tr><td style="font-weight:bold;vertical-align:top">wsgi_file_wrapper</td><td valign="top">:</td><td><div>&lt;class wsgiref.util.FileWrapper at 0x10926a390&gt;</div></td></tr><tr><td style="font-weight:bold;vertical-align:top">wsgi_input</td><td valign="top">:</td><td><div>&lt;socket._fileobject object at 0x108e7d7d0&gt;</div></td></tr><tr><td style="font-weight:bold;vertical-align:top">wsgi_multiprocess</td><td valign="top">:</td><td><div>False</div></td></tr><tr><td style="font-weight:bold;vertical-align:top">wsgi_multithread</td><td valign="top">:</td><td><div>True</div></td></tr><tr><td style="font-weight:bold;vertical-align:top">wsgi_run_once</td><td valign="top">:</td><td><div>False</div></td></tr><tr><td style="font-weight:bold;vertical-align:top">wsgi_url_scheme</td><td valign="top">:</td><td><div>http</div></td></tr><tr><td style="font-weight:bold;vertical-align:top">wsgi_version</td><td valign="top">:</td><td><div><table><tr><td><div>1</div></td></tr><tr><td><div>0</div></td></tr></table></div></td></tr></table></div></td></tr><tr><td style="font-weight:bold;vertical-align:top">extension</td><td valign="top">:</td><td><div>html</div></td></tr><tr><td style="font-weight:bold;vertical-align:top">folder</td><td valign="top">:</td><td><div>/Users/adin/Work/SIRI/TimeClock/siri/applications/siriadmin/</div></td></tr><tr><td style="font-weight:bold;vertical-align:top">function</td><td valign="top">:</td><td><div>mentortrack</div></td></tr><tr><td style="font-weight:bold;vertical-align:top">get_vars</td><td valign="top">:</td><td><div><table></table></div></td></tr><tr><td style="font-weight:bold;vertical-align:top">global_settings</td><td valign="top">:</td><td><div><table><tr><td style="font-weight:bold;vertical-align:top">app_folders</td><td valign="top">:</td><td><div>set([&#x27;/Users/adin/Work/SIRI/TimeClock/siri/applications/welcome/&#x27;, &#x27;/Users/adin/Work/SIRI/TimeClock/siri/applications/admin/&#x27;, &#x27;/Users/adin/Work/SIRI/TimeClock/siri/applications/siriadmin/&#x27;])</div></td></tr><tr><td style="font-weight:bold;vertical-align:top">applications_parent</td><td valign="top">:</td><td><div>/Users/adin/Work/SIRI/TimeClock/siri</div></td></tr><tr><td style="font-weight:bold;vertical-align:top">cmd_args</td><td valign="top">:</td><td><div><table></table></div></td></tr><tr><td style="font-weight:bold;vertical-align:top">cmd_options</td><td valign="top">:</td><td><div>&lt;Values at 0x1092cabd8: {&#x27;verbose&#x27;: False, &#x27;ip&#x27;: &#x27;127.0.0.1&#x27;, &#x27;with_scheduler&#x27;: False, &#x27;ips&#x27;: [&#x27;fe80::3e07:54ff:fe4e:bf0a%en1&#x27;, &#x27;fe80::3e07:54ff:fe4e:bf0a%en0&#x27;, &#x27;10.5.151.202&#x27;, &#x27;fe80::6aa8:6dff:fe1b:d9f2%en1&#x27;, &#x27;fe80::6aa8:6dff:fe1b:d9f2%en0&#x27;, &#x27;10.5.151.173&#x27;], &#x27;shutdown_timeout&#x27;: 5, &#x27;taskbar&#x27;: False, &#x27;with_coverage&#x27;: False, &#x27;port&#x27;: 8000, &#x27;maxthreads&#x27;: None, &#x27;softcron&#x27;: False, &#x27;server_name&#x27;: &#x27;Aphro.local&#x27;, &#x27;bpython&#x27;: False, &#x27;nogui&#x27;: False, &#x27;pid_filename&#x27;: &#x27;httpserver.pid&#x27;, &#x27;extcron&#x27;: False, &#x27;runcron&#x27;: False, &#x27;run_system_tests&#x27;: False, &#x27;test&#x27;: None, &#x27;folder&#x27;: &#x27;/Users/adin/Work/SIRI/TimeClock/siri&#x27;, &#x27;config&#x27;: &#x27;&#x27;, &#x27;minthreads&#x27;: None, &#x27;winservice&#x27;: &#x27;&#x27;, &#x27;shell&#x27;: None, &#x27;run&#x27;: &#x27;&#x27;, &#x27;log_filename&#x27;: &#x27;httpserver.log&#x27;, &#x27;debuglevel&#x27;: 30, &#x27;args&#x27;: [&#x27;&#x27;], &#x27;socket_timeout&#x27;: 5, &#x27;ssl_ca_certificate&#x27;: None, &#x27;scheduler&#x27;: None, &#x27;profiler_filename&#x27;: None, &#x27;ssl_private_key&#x27;: &#x27;&#x27;, &#x27;scheduler_groups&#x27;: None, &#x27;password&#x27;: &#x27;&lt;ask&gt;&#x27;, &#x27;request_queue_size&#x27;: 5, &#x27;ssl_certificate&#x27;: &#x27;&#x27;, &#x27;cronjob&#x27;: False, &#x27;numthreads&#x27;: None, &#x27;quiet&#x27;: False, &#x27;interfaces&#x27;: None, &#x27;import_models&#x27;: False, &#x27;timeout&#x27;: 10, &#x27;plain&#x27;: False, &#x27;nobanner&#x27;: False}&gt;</div></td></tr><tr><td style="font-weight:bold;vertical-align:top">db_sessions</td><td valign="top">:</td><td><div>set([])</div></td></tr><tr><td style="font-weight:bold;vertical-align:top">debugging</td><td valign="top">:</td><td><div>True</div></td></tr><tr><td style="font-weight:bold;vertical-align:top">gluon_parent</td><td valign="top">:</td><td><div>/Users/adin/Work/SIRI/TimeClock/siri</div></td></tr><tr><td style="font-weight:bold;vertical-align:top">is_jython</td><td valign="top">:</td><td><div>False</div></td></tr><tr><td style="font-weight:bold;vertical-align:top">is_pypy</td><td valign="top">:</td><td><div>False</div></td></tr><tr><td style="font-weight:bold;vertical-align:top">local_hosts</td><td valign="top">:</td><td><div><table><tr><td><div>fe80::3e07:54ff:fe4e:bf0a%en1</div></td></tr><tr><td><div>fe80::3e07:54ff:fe4e:bf0a%en0</div></td></tr><tr><td><div>Aphro.local</div></td></tr><tr><td><div>::ffff:127.0.0.1</div></td></tr><tr><td><div>::1</div></td></tr><tr><td><div>10.5.151.202</div></td></tr><tr><td><div>fe80::6aa8:6dff:fe1b:d9f2%en1</div></td></tr><tr><td><div>fe80::6aa8:6dff:fe1b:d9f2%en0</div></td></tr><tr><td><div>10.5.151.173</div></td></tr><tr><td><div>127.0.0.1</div></td></tr></table></div></td></tr><tr><td style="font-weight:bold;vertical-align:top">web2py_version</td><td valign="top">:</td><td><div>2.5.1-stable+timestamp.2013.06.06.15.39.19</div></td></tr></table></div></td></tr><tr><td style="font-weight:bold;vertical-align:top">is_https</td><td valign="top">:</td><td><div>False</div></td></tr><tr><td style="font-weight:bold;vertical-align:top">is_local</td><td valign="top">:</td><td><div>True</div></td></tr><tr><td style="font-weight:bold;vertical-align:top">is_restful</td><td valign="top">:</td><td><div>False</div></td></tr><tr><td style="font-weight:bold;vertical-align:top">now</td><td valign="top">:</td><td><div>datetime.datetime(2014, 1, 1, 14, 21, 6, 81140)</div></td></tr><tr><td style="font-weight:bold;vertical-align:top">post_vars</td><td valign="top">:</td><td><div><table></table></div></td></tr><tr><td style="font-weight:bold;vertical-align:top">raw_args</td><td valign="top">:</td><td><div></div></td></tr><tr><td style="font-weight:bold;vertical-align:top">raw_extension</td><td valign="top">:</td><td><div>None</div></td></tr><tr><td style="font-weight:bold;vertical-align:top">url</td><td valign="top">:</td><td><div>/siriadmin/timeclock/mentortrack</div></td></tr><tr><td style="font-weight:bold;vertical-align:top">utcnow</td><td valign="top">:</td><td><div>datetime.datetime(2014, 1, 1, 21, 21, 6, 81156)</div></td></tr><tr><td style="font-weight:bold;vertical-align:top">uuid</td><td valign="top">:</td><td><div>siriadmin/127.0.0.1.2014-01-01.14-21-06.2a79d014-6792-4c41-b5fe-0ec016a840f5</div></td></tr><tr><td style="font-weight:bold;vertical-align:top">vars</td><td valign="top">:</td><td><div><table></table></div></td></tr><tr><td style="font-weight:bold;vertical-align:top">wsgi</td><td valign="top">:</td><td><div><table><tr><td style="font-weight:bold;vertical-align:top">environ</td><td valign="top">:</td><td><div><table><tr><td style="font-weight:bold;vertical-align:top">HTTP_ACCEPT</td><td valign="top">:</td><td><div>text/html,application/xhtml+xml,application/xml;q=0.9,*/*;q=0.8</div></td></tr><tr><td style="font-weight:bold;vertical-align:top">HTTP_ACCEPT_ENCODING</td><td valign="top">:</td><td><div>gzip, deflate</div></td></tr><tr><td style="font-weight:bold;vertical-align:top">HTTP_ACCEPT_LANGUAGE</td><td valign="top">:</td><td><div>en-US,en;q=0.5</div></td></tr><tr><td style="font-weight:bold;vertical-align:top">HTTP_CACHE_CONTROL</td><td valign="top">:</td><td><div>max-age=0</div></td></tr><tr><td style="font-weight:bold;vertical-align:top">HTTP_CONNECTION</td><td valign="top">:</td><td><div>keep-alive</div></td></tr><tr><td style="font-weight:bold;vertical-align:top">HTTP_COOKIE</td><td valign="top">:</td><td><div>session_id_welcome=127.0.0.1-99bb6ee0-0784-458b-9aa9-1f0712b27d48; session_id_admin=127.0.0.1-ebe5ca4f-6391-4175-8c8b-d9562a433670; session_id_siriadmin=127.0.0.1-035af0be-6b4f-4ced-83c8-beb0fbc5c152</div></td></tr><tr><td style="font-weight:bold;vertical-align:top">HTTP_DNT</td><td valign="top">:</td><td><div>1</div></td></tr><tr><td style="font-weight:bold;vertical-align:top">HTTP_HOST</td><td valign="top">:</td><td><div>127.0.0.1:8000</div></td></tr><tr><td style="font-weight:bold;vertical-align:top">HTTP_USER_AGENT</td><td valign="top">:</td><td><div>Mozilla/5.0 (Macintosh; Intel Mac OS X 10.9; rv:26.0) Gecko/20100101 Firefox/26.0</div></td></tr><tr><td style="font-weight:bold;vertical-align:top">PATH_INFO</td><td valign="top">:</td><td><div>/siriadmin/timeclock/mentortrack</div></td></tr><tr><td style="font-weight:bold;vertical-align:top">QUERY_STRING</td><td valign="top">:</td><td><div></div></td></tr><tr><td style="font-weight:bold;vertical-align:top">REMOTE_ADDR</td><td valign="top">:</td><td><div>127.0.0.1</div></td></tr><tr><td style="font-weight:bold;vertical-align:top">REMOTE_PORT</td><td valign="top">:</td><td><div>64753</div></td></tr><tr><td style="font-weight:bold;vertical-align:top">REQUEST_METHOD</td><td valign="top">:</td><td><div>GET</div></td></tr><tr><td style="font-weight:bold;vertical-align:top">REQUEST_URI</td><td valign="top">:</td><td><div>/siriadmin/timeclock/mentortrack</div></td></tr><tr><td style="font-weight:bold;vertical-align:top">SCRIPT_NAME</td><td valign="top">:</td><td><div></div></td></tr><tr><td style="font-weight:bold;vertical-align:top">SERVER_NAME</td><td valign="top">:</td><td><div>Aphro.local</div></td></tr><tr><td style="font-weight:bold;vertical-align:top">SERVER_PORT</td><td valign="top">:</td><td><div>8000</div></td></tr><tr><td style="font-weight:bold;vertical-align:top">SERVER_PROTOCOL</td><td valign="top">:</td><td><div>HTTP/1.1</div></td></tr><tr><td style="font-weight:bold;vertical-align:top">SERVER_SOFTWARE</td><td valign="top">:</td><td><div>Rocket 1.2.6</div></td></tr><tr><td style="font-weight:bold;vertical-align:top">wsgi.errors</td><td valign="top">:</td><td><div>&lt;open file &#x27;&lt;stderr&gt;&#x27;, mode &#x27;w&#x27; at 0x1084bb1e0&gt;</div></td></tr><tr><td style="font-weight:bold;vertical-align:top">wsgi.file_wrapper</td><td valign="top">:</td><td><div>&lt;class wsgiref.util.FileWrapper at 0x10926a390&gt;</div></td></tr><tr><td style="font-weight:bold;vertical-align:top">wsgi.input</td><td valign="top">:</td><td><div>&lt;cStringIO.StringO object at 0x11196ab90&gt;</div></td></tr><tr><td style="font-weight:bold;vertical-align:top">wsgi.multiprocess</td><td valign="top">:</td><td><div>False</div></td></tr><tr><td style="font-weight:bold;vertical-align:top">wsgi.multithread</td><td valign="top">:</td><td><div>True</div></td></tr><tr><td style="font-weight:bold;vertical-align:top">wsgi.run_once</td><td valign="top">:</td><td><div>False</div></td></tr><tr><td style="font-weight:bold;vertical-align:top">wsgi.url_scheme</td><td valign="top">:</td><td><div>http</div></td></tr><tr><td style="font-weight:bold;vertical-align:top">wsgi.version</td><td valign="top">:</td><td><div>1</div></td></tr></table></div></td></tr></table></div></td></tr></table></div>'
tRp58
sS'frames'
p59
(lp60
(dp61
S'file'
p62
S'/Users/adin/Work/SIRI/TimeClock/siri/gluon/restricted.py'
p63
sS'dump'
p64
(dp65
S'environment'
p66
S"{'A': <class 'gluon.html.A'>, 'ANY_OF': <class 'gluon.validators.ANY_OF'>, 'Auth': <class 'gluon.tools.Auth'>, 'B': <class 'gluon.html.B'>, 'BEAUTIFY': <class 'gluon.html.BEAUTIFY'>, 'BODY': <class 'gluon.html.BODY'>, 'BR': <class 'gluon.html.BR'>, 'BUTTON': <class 'gluon.html.BUTTON'>, 'CAT': <class 'gluon.html.CAT'>, 'CENTER': <class 'gluon.html.CENTER'>, ...}"
p67
sS'ccode'
p68
S'<code object <module> at 0x10e71f730, file "/Use...iadmin/views/timeclock/mentortrack.html", line 1>'
p69
ssS'lnum'
p70
I212
sS'lines'
p71
(dp72
I207
S'    try:'
p73
sI208
S'        if isinstance(code, types.CodeType):'
p74
sI209
S'            ccode = code'
p75
sI210
S'        else:'
p76
sI211
S'            ccode = compile2(code, layer)'
p77
sI212
S'        exec ccode in environment'
p78
sI213
S'    except HTTP:'
p79
sI214
S'        raise'
p80
sI215
S'    except RestrictedError:'
p81
sI216
S'        # do not encapsulate (obfuscate) the original RestrictedError'
p82
ssS'call'
p83
S'(code=\'response.write(\\\'<!--[if HTML5]><![endif]-->\\\\n<!D..."></script>\\\\n</body>\\\\n</html>\\\\n\\\\n\\\', escape=False)\', environment={\'A\': <class \'gluon.html.A\'>, \'ANY_OF\': <class \'gluon.validators.ANY_OF\'>, \'Auth\': <class \'gluon.tools.Auth\'>, \'B\': <class \'gluon.html.B\'>, \'BEAUTIFY\': <class \'gluon.html.BEAUTIFY\'>, \'BODY\': <class \'gluon.html.BODY\'>, \'BR\': <class \'gluon.html.BR\'>, \'BUTTON\': <class \'gluon.html.BUTTON\'>, \'CAT\': <class \'gluon.html.CAT\'>, \'CENTER\': <class \'gluon.html.CENTER\'>, ...}, layer=\'/Users/adin/Work/SIRI/TimeClock/siri/applications/siriadmin/views/timeclock/mentortrack.html\')'
p84
sS'func'
p85
S'restricted'
p86
sa(dp87
g62
S'/Users/adin/Work/SIRI/TimeClock/siri/applications/siriadmin/views/timeclock/mentortrack.html'
p88
sg64
(dp89
sg70
I87
sg71
(dp90
I96
S'response.write(\' <!-- this is default footer -->\\n                <div class="copyright pull-left">\', escape=False)'
p91
sI97
S"response.write(T('Copyright'))"
p92
sI78
S'    response.write(\'\\n        <div class="span3 left-sidebar">\\n            \', escape=False)'
p93
sI79
S"    response.write('\\n            <h3>Left Sidebar</h3>\\n            <p></p>\\n            ', escape=False)"
p94
sI80
S"    response.write('\\n        </div>\\n        ', escape=False)"
p95
sI81
S'    pass'
p96
sI82
S'response.write(\'\\n\\n        <div class="\', escape=False)'
p97
sI83
S'response.write(middle_columns)'
p98
sI84
S'response.write(\'">\\n            \', escape=False)'
p99
sI85
S"response.write('\\n            ', escape=False)"
p100
sI86
S"response.write('\\n<h1>This is the timeclock/mentortrack.html template</h1>\\n', escape=False)"
p101
sI87
S'response.write(BEAUTIFY(response._vars))'
p102
sI88
S"response.write('\\n            ', escape=False)"
p103
sI89
S"response.write('\\n        </div>\\n\\n        ', escape=False)"
p104
sI90
S'if right_sidebar_enabled:'
p105
sI91
S'    response.write(\'\\n        <div class="span3">\\n            \', escape=False)'
p106
sI92
S"    response.write('\\n            <h3>Right Sidebar</h3>\\n            <p></p>\\n            ', escape=False)"
p107
sI93
S"    response.write('\\n        </div>\\n        ', escape=False)"
p108
sI94
S'    pass'
p109
sI95
S'response.write(\'\\n    </section><!--/main-->\\n\\n    <!-- Footer ================================================== -->\\n    <div class="row">\\n        <footer class="footer span12" id="footer">\\n            <div class="footer-content">\\n                \', escape=False)'
p110
ssg83
S'()'
p111
sg85
S'<module>'
p112
sa(dp113
g62
S'/Users/adin/Work/SIRI/TimeClock/siri/gluon/globals.py'
p114
sg64
(dp115
S'self.body.write'
p116
S'<built-in method write of cStringIO.StringO object>'
p117
sS'self.body'
p118
S'<cStringIO.StringO object>'
p119
sS'self'
p120
S"<Storage {'body': <cStringIO.StringO object at 0...11a5bd70>, 'view': 'timeclock/mentortrack.html'}>"
p121
sS'global xmlescape'
p122
S'<function xmlescape>'
p123
sS'data'
p124
S'<gluon.html.BEAUTIFY object>'
p125
ssg70
I203
sg71
(dp126
I198
S''
sI199
S'    def write(self, data, escape=True):'
p127
sI200
S'        if not escape:'
p128
sI201
S'            self.body.write(str(data))'
p129
sI202
S'        else:'
p130
sI203
S'            self.body.write(xmlescape(data))'
p131
sI204
S''
sI205
S'    def render(self, *a, **b):'
p132
sI206
S'        from compileapp import run_view_in'
p133
sI207
S'        if len(a) > 2:'
p134
ssg83
S"(self=<Storage {'body': <cStringIO.StringO object at 0...11a5bd70>, 'view': 'timeclock/mentortrack.html'}>, data=<gluon.html.BEAUTIFY object>, escape=True)"
p135
sg85
S'write'
p136
sa(dp137
g62
S'/Users/adin/Work/SIRI/TimeClock/siri/gluon/html.py'
p138
sg64
(dp139
S'data'
p140
S'<gluon.html.BEAUTIFY object>'
p141
sS'data.xml'
p142
S'<bound method BEAUTIFY.xml of <gluon.html.BEAUTIFY object>>'
p143
ssg70
I120
sg71
(dp144
I115
S'    :param quote: optional (default False)'
p145
sI116
S'    """'
p146
sI117
S''
sI118
S'    # first try the xml function'
p147
sI119
S"    if hasattr(data, 'xml') and callable(data.xml):"
p148
sI120
S'        return data.xml()'
p149
sI121
S''
sI122
S'    # otherwise, make it a string'
p150
sI123
S'    if not isinstance(data, (str, unicode)):'
p151
sI124
S'        data = str(data)'
p152
ssg83
S'(data=<gluon.html.BEAUTIFY object>, quote=True)'
p153
sg85
S'xmlescape'
p154
sa(dp155
g62
S'/Users/adin/Work/SIRI/TimeClock/siri/gluon/html.py'
p156
sg64
(dp157
S'fa'
p158
S'undefined'
p159
sS'self'
p160
S'<gluon.html.BEAUTIFY object>'
p161
sS'co'
p162
g159
sS'self._xml'
p163
S'<bound method BEAUTIFY._xml of <gluon.html.BEAUTIFY object>>'
p164
ssg70
I920
sg71
(dp165
I915
S'    def xml(self):'
p166
sI916
S'        """'
p167
sI917
S'        generates the xml for this component.'
p168
sI918
S'        """'
p169
sI919
S''
sI920
S'        (fa, co) = self._xml()'
p170
sI921
S''
sI922
S'        if not self.tag:'
p171
sI923
S'            return co'
p172
sI924
S''
ssg83
S'(self=<gluon.html.BEAUTIFY object>)'
p173
sg85
S'xml'
p174
sa(dp175
g62
S'/Users/adin/Work/SIRI/TimeClock/siri/gluon/html.py'
p176
sg64
(dp177
S'self'
p178
S'<gluon.html.BEAUTIFY object>'
p179
sS'self.components'
p180
S'[<gluon.html.TABLE object>]'
p181
ssg70
I911
sg71
(dp182
I906
S"        fa = ''"
p183
sI907
S'        for name,value in attr:'
p184
sI908
S'            fa += \' %s="%s"\' % (name, xmlescape(value, True))'
p185
sI909
S'        # get the xml for the inner components'
p186
sI910
S'        co = join([xmlescape(component) for component in'
p187
sI911
S'                   self.components])'
p188
sI912
S''
sI913
S'        return (fa, co)'
p189
sI914
S''
sI915
S'    def xml(self):'
p190
ssg83
S'(self=<gluon.html.BEAUTIFY object>)'
p191
sg85
S'_xml'
p192
sa(dp193
g62
S'/Users/adin/Work/SIRI/TimeClock/siri/gluon/html.py'
p194
sg64
(dp195
S'data'
p196
S'<gluon.html.TABLE object>'
p197
sS'data.xml'
p198
S'<bound method TABLE.xml of <gluon.html.TABLE object>>'
p199
ssg70
I120
sg71
(dp200
I115
S'    :param quote: optional (default False)'
p201
sI116
S'    """'
p202
sI117
S''
sI118
S'    # first try the xml function'
p203
sI119
S"    if hasattr(data, 'xml') and callable(data.xml):"
p204
sI120
S'        return data.xml()'
p205
sI121
S''
sI122
S'    # otherwise, make it a string'
p206
sI123
S'    if not isinstance(data, (str, unicode)):'
p207
sI124
S'        data = str(data)'
p208
ssg83
S'(data=<gluon.html.TABLE object>, quote=True)'
p209
sg85
g154
sa(dp210
g62
S'/Users/adin/Work/SIRI/TimeClock/siri/gluon/html.py'
p211
sg64
(dp212
S'fa'
p213
g159
sS'self'
p214
S'<gluon.html.TABLE object>'
p215
sS'co'
p216
g159
sS'self._xml'
p217
S'<bound method TABLE._xml of <gluon.html.TABLE object>>'
p218
ssg70
I920
sg71
(dp219
I915
S'    def xml(self):'
p220
sI916
S'        """'
p221
sI917
S'        generates the xml for this component.'
p222
sI918
S'        """'
p223
sI919
S''
sI920
S'        (fa, co) = self._xml()'
p224
sI921
S''
sI922
S'        if not self.tag:'
p225
sI923
S'            return co'
p226
sI924
S''
ssg83
S'(self=<gluon.html.TABLE object>)'
p227
sg85
g174
sa(dp228
g62
S'/Users/adin/Work/SIRI/TimeClock/siri/gluon/html.py'
p229
sg64
(dp230
S'self'
p231
S'<gluon.html.TABLE object>'
p232
sS'self.components'
p233
S'[<gluon.html.TR object>, <gluon.html.TR object>]'
p234
ssg70
I911
sg71
(dp235
I906
S"        fa = ''"
p236
sI907
S'        for name,value in attr:'
p237
sI908
S'            fa += \' %s="%s"\' % (name, xmlescape(value, True))'
p238
sI909
S'        # get the xml for the inner components'
p239
sI910
S'        co = join([xmlescape(component) for component in'
p240
sI911
S'                   self.components])'
p241
sI912
S''
sI913
S'        return (fa, co)'
p242
sI914
S''
sI915
S'    def xml(self):'
p243
ssg83
S'(self=<gluon.html.TABLE object>)'
p244
sg85
g192
sa(dp245
g62
S'/Users/adin/Work/SIRI/TimeClock/siri/gluon/html.py'
p246
sg64
(dp247
S'data'
p248
S'<gluon.html.TR object>'
p249
sS'data.xml'
p250
S'<bound method TR.xml of <gluon.html.TR object>>'
p251
ssg70
I120
sg71
(dp252
I115
S'    :param quote: optional (default False)'
p253
sI116
S'    """'
p254
sI117
S''
sI118
S'    # first try the xml function'
p255
sI119
S"    if hasattr(data, 'xml') and callable(data.xml):"
p256
sI120
S'        return data.xml()'
p257
sI121
S''
sI122
S'    # otherwise, make it a string'
p258
sI123
S'    if not isinstance(data, (str, unicode)):'
p259
sI124
S'        data = str(data)'
p260
ssg83
S'(data=<gluon.html.TR object>, quote=True)'
p261
sg85
g154
sa(dp262
g62
S'/Users/adin/Work/SIRI/TimeClock/siri/gluon/html.py'
p263
sg64
(dp264
S'fa'
p265
g159
sS'self'
p266
S'<gluon.html.TR object>'
p267
sS'co'
p268
g159
sS'self._xml'
p269
S'<bound method TR._xml of <gluon.html.TR object>>'
p270
ssg70
I920
sg71
(dp271
I915
S'    def xml(self):'
p272
sI916
S'        """'
p273
sI917
S'        generates the xml for this component.'
p274
sI918
S'        """'
p275
sI919
S''
sI920
S'        (fa, co) = self._xml()'
p276
sI921
S''
sI922
S'        if not self.tag:'
p277
sI923
S'            return co'
p278
sI924
S''
ssg83
S'(self=<gluon.html.TR object>)'
p279
sg85
g174
sa(dp280
g62
S'/Users/adin/Work/SIRI/TimeClock/siri/gluon/html.py'
p281
sg64
(dp282
S'self'
p283
S'<gluon.html.TR object>'
p284
sS'self.components'
p285
S'[<gluon.html.TD object>, <gluon.html.TD object>, <gluon.html.TD object>]'
p286
ssg70
I911
sg71
(dp287
I906
S"        fa = ''"
p288
sI907
S'        for name,value in attr:'
p289
sI908
S'            fa += \' %s="%s"\' % (name, xmlescape(value, True))'
p290
sI909
S'        # get the xml for the inner components'
p291
sI910
S'        co = join([xmlescape(component) for component in'
p292
sI911
S'                   self.components])'
p293
sI912
S''
sI913
S'        return (fa, co)'
p294
sI914
S''
sI915
S'    def xml(self):'
p295
ssg83
S'(self=<gluon.html.TR object>)'
p296
sg85
g192
sa(dp297
g62
S'/Users/adin/Work/SIRI/TimeClock/siri/gluon/html.py'
p298
sg64
(dp299
S'data'
p300
S'<gluon.html.TD object>'
p301
sS'data.xml'
p302
S'<bound method TD.xml of <gluon.html.TD object>>'
p303
ssg70
I120
sg71
(dp304
I115
S'    :param quote: optional (default False)'
p305
sI116
S'    """'
p306
sI117
S''
sI118
S'    # first try the xml function'
p307
sI119
S"    if hasattr(data, 'xml') and callable(data.xml):"
p308
sI120
S'        return data.xml()'
p309
sI121
S''
sI122
S'    # otherwise, make it a string'
p310
sI123
S'    if not isinstance(data, (str, unicode)):'
p311
sI124
S'        data = str(data)'
p312
ssg83
S'(data=<gluon.html.TD object>, quote=True)'
p313
sg85
g154
sa(dp314
g62
S'/Users/adin/Work/SIRI/TimeClock/siri/gluon/html.py'
p315
sg64
(dp316
S'fa'
p317
g159
sS'self'
p318
S'<gluon.html.TD object>'
p319
sS'co'
p320
g159
sS'self._xml'
p321
S'<bound method TD._xml of <gluon.html.TD object>>'
p322
ssg70
I920
sg71
(dp323
I915
S'    def xml(self):'
p324
sI916
S'        """'
p325
sI917
S'        generates the xml for this component.'
p326
sI918
S'        """'
p327
sI919
S''
sI920
S'        (fa, co) = self._xml()'
p328
sI921
S''
sI922
S'        if not self.tag:'
p329
sI923
S'            return co'
p330
sI924
S''
ssg83
S'(self=<gluon.html.TD object>)'
p331
sg85
g174
sa(dp332
g62
S'/Users/adin/Work/SIRI/TimeClock/siri/gluon/html.py'
p333
sg64
(dp334
S'self'
p335
S'<gluon.html.TD object>'
p336
sS'self.components'
p337
S'[<gluon.html.BEAUTIFY object>]'
p338
ssg70
I911
sg71
(dp339
I906
S"        fa = ''"
p340
sI907
S'        for name,value in attr:'
p341
sI908
S'            fa += \' %s="%s"\' % (name, xmlescape(value, True))'
p342
sI909
S'        # get the xml for the inner components'
p343
sI910
S'        co = join([xmlescape(component) for component in'
p344
sI911
S'                   self.components])'
p345
sI912
S''
sI913
S'        return (fa, co)'
p346
sI914
S''
sI915
S'    def xml(self):'
p347
ssg83
S'(self=<gluon.html.TD object>)'
p348
sg85
g192
sa(dp349
g62
S'/Users/adin/Work/SIRI/TimeClock/siri/gluon/html.py'
p350
sg64
(dp351
S'data'
p352
S'<gluon.html.BEAUTIFY object>'
p353
sS'data.xml'
p354
S'<bound method BEAUTIFY.xml of <gluon.html.BEAUTIFY object>>'
p355
ssg70
I120
sg71
(dp356
I115
S'    :param quote: optional (default False)'
p357
sI116
S'    """'
p358
sI117
S''
sI118
S'    # first try the xml function'
p359
sI119
S"    if hasattr(data, 'xml') and callable(data.xml):"
p360
sI120
S'        return data.xml()'
p361
sI121
S''
sI122
S'    # otherwise, make it a string'
p362
sI123
S'    if not isinstance(data, (str, unicode)):'
p363
sI124
S'        data = str(data)'
p364
ssg83
S'(data=<gluon.html.BEAUTIFY object>, quote=True)'
p365
sg85
g154
sa(dp366
g62
S'/Users/adin/Work/SIRI/TimeClock/siri/gluon/html.py'
p367
sg64
(dp368
S'fa'
p369
g159
sS'self'
p370
S'<gluon.html.BEAUTIFY object>'
p371
sS'co'
p372
g159
sS'self._xml'
p373
S'<bound method BEAUTIFY._xml of <gluon.html.BEAUTIFY object>>'
p374
ssg70
I920
sg71
(dp375
I915
S'    def xml(self):'
p376
sI916
S'        """'
p377
sI917
S'        generates the xml for this component.'
p378
sI918
S'        """'
p379
sI919
S''
sI920
S'        (fa, co) = self._xml()'
p380
sI921
S''
sI922
S'        if not self.tag:'
p381
sI923
S'            return co'
p382
sI924
S''
ssg83
S'(self=<gluon.html.BEAUTIFY object>)'
p383
sg85
g174
sa(dp384
g62
S'/Users/adin/Work/SIRI/TimeClock/siri/gluon/html.py'
p385
sg64
(dp386
S'self'
p387
S'<gluon.html.BEAUTIFY object>'
p388
sS'self.components'
p389
S'[<Rows (1)>]'
p390
ssg70
I911
sg71
(dp391
I906
S"        fa = ''"
p392
sI907
S'        for name,value in attr:'
p393
sI908
S'            fa += \' %s="%s"\' % (name, xmlescape(value, True))'
p394
sI909
S'        # get the xml for the inner components'
p395
sI910
S'        co = join([xmlescape(component) for component in'
p396
sI911
S'                   self.components])'
p397
sI912
S''
sI913
S'        return (fa, co)'
p398
sI914
S''
sI915
S'    def xml(self):'
p399
ssg83
S'(self=<gluon.html.BEAUTIFY object>)'
p400
sg85
g192
sa(dp401
g62
S'/Users/adin/Work/SIRI/TimeClock/siri/gluon/html.py'
p402
sg64
(dp403
S'data'
p404
S'<Rows (1)>'
p405
sS'data.xml'
p406
S'<bound method Rows.xml of <Rows (1)>>'
p407
ssg70
I120
sg71
(dp408
I115
S'    :param quote: optional (default False)'
p409
sI116
S'    """'
p410
sI117
S''
sI118
S'    # first try the xml function'
p411
sI119
S"    if hasattr(data, 'xml') and callable(data.xml):"
p412
sI120
S'        return data.xml()'
p413
sI121
S''
sI122
S'    # otherwise, make it a string'
p414
sI123
S'    if not isinstance(data, (str, unicode)):'
p415
sI124
S'        data = str(data)'
p416
ssg83
S'(data=<Rows (1)>, quote=True)'
p417
sg85
g154
sa(dp418
g62
S'/Users/adin/Work/SIRI/TimeClock/siri/gluon/dal.py'
p419
sg64
(dp420
S').xml'
p421
S'<bound method Rows.xml of <Rows (1)>>'
p422
sS'self'
p423
S'<Rows (1)>'
p424
sS'sqlhtml.SQLTABLE'
p425
S"<class 'gluon.sqlhtml.SQLTABLE'>"
p426
sS'sqlhtml'
p427
S"<module 'gluon.sqlhtml' from '/Users/adin/Work/SIRI/TimeClock/siri/gluon/sqlhtml.pyc'>"
p428
ssg70
I10454
sg71
(dp429
I10449
S"                '\\n'.join(row.as_xml(row_name=row_name,"
p430
sI10450
S'                                     colnames=self.colnames) for'
p431
sI10451
S'                          row in self), rows_name)'
p432
sI10452
S''
sI10453
S'        import sqlhtml'
p433
sI10454
S'        return sqlhtml.SQLTABLE(self).xml()'
p434
sI10455
S''
sI10456
S"    def as_xml(self,row_name='row',rows_name='rows'):"
p435
sI10457
S'        return self.xml(strict=True, row_name=row_name, rows_name=rows_name)'
p436
sI10458
S''
ssg83
S"(self=<Rows (1)>, strict=False, row_name='row', rows_name='rows')"
p437
sg85
g174
sa(dp438
g62
S'/Users/adin/Work/SIRI/TimeClock/siri/gluon/sqlhtml.py'
p439
sg64
(dp440
S'record'
p441
S"<Row {'acheived_date': datetime.date(2014, 1, 3)...goal_date': datetime.date(2014, 1, 2), 'id': 2L}>"
p442
sS'global represent'
p443
S'<function represent>'
p444
sS'r'
S'3L'
p445
sS'field'
p446
S'<gluon.dal.Field object>'
p447
ssg70
I2902
sg71
(dp448
I2897
S"                                tref, fref = ref.split('.')"
p449
sI2898
S"                                if hasattr(sqlrows.db[tref], '_primarykey'):"
p450
sI2899
S"                                    href = '%s/%s?%s' % (linkto, tref, urllib.urlencode({fref: r}))"
p451
sI2900
S'                        r = A(represent(field, r, record), _href=str(href))'
p452
sI2901
S'                    elif field.represent:'
p453
sI2902
S'                        r = represent(field, r, record)'
p454
sI2903
S"                elif linkto and hasattr(field._table, '_primarykey')\\"
p455
sI2904
S'                        and fieldname in field._table._primarykey:'
p456
sI2905
S'                    # have to test this with multi-key tables'
p457
sI2906
S'                    key = urllib.urlencode(dict(['
p458
ssg83
S"(self=<gluon.sqlhtml.SQLTABLE object>, sqlrows=<Rows (1)>, linkto=None, upload=None, orderby=None, headers={}, truncate=16, columns=['mentorTrack_data.id', 'mentorTrack_data.user_id', 'mentorTrack_data.milemark', 'mentorTrack_data.goal_date', 'mentorTrack_data.acheived_date'], th_link='', extracolumns=None, selectid=None, renderstyle=False, cid=None, **attributes={})"
p459
sg85
g50
sa(dp460
g62
S'/Users/adin/Work/SIRI/TimeClock/siri/gluon/sqlhtml.py'
p461
sg64
(dp462
S'record'
p463
S"<Row {'acheived_date': datetime.date(2014, 1, 3)...goal_date': datetime.date(2014, 1, 2), 'id': 2L}>"
p464
sS'value'
p465
S'3L'
p466
sS'f'
S'<function <lambda>>'
p467
ssg70
I66
sg71
(dp468
I64
S'        return f(value)'
p469
sI65
S'    elif n == 2:'
p470
sI66
S'        return f(value, record)'
p471
sI67
S'    else:'
p472
sI68
S'        raise RuntimeError("field representation must take 1 or 2 args")'
p473
sI69
S''
sI70
S''
sI61
S"    if getattr(f, 'im_self', None):"
p474
sI62
S'        n -= 1'
p475
sI63
S'    if n == 1:'
p476
ssg83
S"(field=<gluon.dal.Field object>, value=3L, record=<Row {'acheived_date': datetime.date(2014, 1, 3)...goal_date': datetime.date(2014, 1, 2), 'id': 2L}>)"
p477
sg85
S'represent'
p478
sa(dp479
g62
S'/Users/adin/Work/SIRI/TimeClock/siri/applications/siriadmin/models/db.py'
p480
sg64
(dp481
S'represent'
p482
g159
sS'user_id'
p483
S'3L'
p484
sS'db.mentorTrack_mentees'
p485
S'<Table mentorTrack_mentees (id,user_id,mentor_id,project_name)>'
p486
sS'db.mentorTrack_mentees.user_id'
p487
S'<gluon.dal.Field object>'
p488
sS'row.auth_user'
p489
g159
sS'label'
p490
g159
sS'global Field'
p491
S"<class 'gluon.dal.Field'>"
p492
sS'global IS_IN_DB'
p493
S"<class 'gluon.validators.IS_IN_DB'>"
p494
sS'global db'
p495
S'<DAL uri="sqlite://storage.sqlite">'
p496
sS'requires'
p497
g159
sS'row'
p498
S"<Row {'acheived_date': datetime.date(2014, 1, 3)...goal_date': datetime.date(2014, 1, 2), 'id': 2L}>"
p499
ssg70
I195
sg71
(dp500
I192
S'    )'
p501
sI193
S''
sI194
S"db.define_table('mentorTrack_data',"
p502
sI195
S"    Field('user_id', 'reference auth_user', label='Mentee', requires=IS_IN_DB(db, db.mentorTrack_mentees.user_id), represent = lambda user_id,row: row.auth_user.first_name),"
p503
sI196
S"    #Field('user_id', 'reference mentorTrack_mentees', label='Mentee', requires=IS_IN_DB(db, db.mentorTrack_mentees.user_id, _and=IS_IN_DB(db, db.auth_user.id, '%(first_name)s %(last_name)s'))),"
p504
sI197
S"    Field('milemark', 'reference mentorTrack_projects', requires=IS_IN_DB(db, db.mentorTrack_projects.id, '%(milemark)s')),"
p505
sI198
S"    Field('goal_date', 'date',requires = IS_DATE(format='%m/%d/%Y')),"
p506
sI199
S"    Field('acheived_date', 'date',requires = IS_DATE(format='%m/%d/%Y'))"
p507
sI190
S"    format='%(user_id)s'"
p508
sI191
S"    #Field('project_id', 'reference mentorTrack_projects', requires=IS_IN_DB(db, db.mentorTrack_projects.id, '%(project_name)%'))"
p509
ssg83
S"(user_id=3L, row=<Row {'acheived_date': datetime.date(2014, 1, 3)...goal_date': datetime.date(2014, 1, 2), 'id': 2L}>)"
p510
sg85
S'<lambda>'
p511
sasS'pyver'
p512
S'Python 2.7.5: /usr/bin/python (prefix: /System/Library/Frameworks/Python.framework/Versions/2.7)'
p513
sS'session'
p514
g57
(S's\xf8\x08\x00\x00<div><table><tr><td style="font-weight:bold;vertical-align:top">auth</td><td valign="top">:</td><td><div><table><tr><td style="font-weight:bold;vertical-align:top">expiration</td><td valign="top">:</td><td><div>3600</div></td></tr><tr><td style="font-weight:bold;vertical-align:top">hmac_key</td><td valign="top">:</td><td><div>b61a557c-9036-4adf-908f-ce6464ad77b2</div></td></tr><tr><td style="font-weight:bold;vertical-align:top">last_visit</td><td valign="top">:</td><td><div>datetime.datetime(2014, 1, 1, 14, 21, 6, 81140)</div></td></tr><tr><td style="font-weight:bold;vertical-align:top">remember</td><td valign="top">:</td><td><div>False</div></td></tr><tr><td style="font-weight:bold;vertical-align:top">user</td><td valign="top">:</td><td><div><table><tr><td style="font-weight:bold;vertical-align:top">email</td><td valign="top">:</td><td><div>adinbaum@gmail.com</div></td></tr><tr><td style="font-weight:bold;vertical-align:top">first_name</td><td valign="top">:</td><td><div>Adin</div></td></tr><tr><td style="font-weight:bold;vertical-align:top">id</td><td valign="top">:</td><td><div>5L</div></td></tr><tr><td style="font-weight:bold;vertical-align:top">last_name</td><td valign="top">:</td><td><div>Baumgarten</div></td></tr><tr><td style="font-weight:bold;vertical-align:top">registration_id</td><td valign="top">:</td><td><div></div></td></tr><tr><td style="font-weight:bold;vertical-align:top">registration_key</td><td valign="top">:</td><td><div></div></td></tr><tr><td style="font-weight:bold;vertical-align:top">reset_password_key</td><td valign="top">:</td><td><div></div></td></tr></table></div></td></tr><tr><td style="font-weight:bold;vertical-align:top">user_groups</td><td valign="top">:</td><td><div><table><tr><td style="font-weight:bold;vertical-align:top">2</td><td valign="top">:</td><td><div>Student Employee</div></td></tr></table></div></td></tr></table></div></td></tr><tr><td style="font-weight:bold;vertical-align:top">flash</td><td valign="top">:</td><td><div>None</div></td></tr><tr><td style="font-weight:bold;vertical-align:top">last_orderby</td><td valign="top">:</td><td><div>None</div></td></tr><tr><td style="font-weight:bold;vertical-align:top">last_query</td><td valign="top">:</td><td><div>db.mentorTrack_data.id&gt;0</div></td></tr></table></div>'
tRp515
sS'etype'
p516
S"<type 'exceptions.AttributeError'>"
p517
sS'date'
p518
S'Wed Jan  1 14:21:06 2014'
p519
sS'response'
p520
g57
(S's\t/\x00\x00<div><table><tr><td style="font-weight:bold;vertical-align:top">body</td><td valign="top">:</td><td><div>&lt;cStringIO.StringO object at 0x11196aae8&gt;</div></td></tr><tr><td style="font-weight:bold;vertical-align:top">cookies</td><td valign="top">:</td><td><div><table><tr><td style="font-weight:bold;vertical-align:top">session_id_siriadmin</td><td valign="top">:</td><td><div>127.0.0.1-035af0be-6b4f-4ced-83c8-beb0fbc5c152<table><tr><td style="font-weight:bold;vertical-align:top">comment</td><td valign="top">:</td><td><div></div></td></tr><tr><td style="font-weight:bold;vertical-align:top">domain</td><td valign="top">:</td><td><div></div></td></tr><tr><td style="font-weight:bold;vertical-align:top">expires</td><td valign="top">:</td><td><div></div></td></tr><tr><td style="font-weight:bold;vertical-align:top">httponly</td><td valign="top">:</td><td><div></div></td></tr><tr><td style="font-weight:bold;vertical-align:top">max-age</td><td valign="top">:</td><td><div></div></td></tr><tr><td style="font-weight:bold;vertical-align:top">path</td><td valign="top">:</td><td><div>/</div></td></tr><tr><td style="font-weight:bold;vertical-align:top">secure</td><td valign="top">:</td><td><div></div></td></tr><tr><td style="font-weight:bold;vertical-align:top">version</td><td valign="top">:</td><td><div></div></td></tr></table></div></td></tr></table></div></td></tr><tr><td style="font-weight:bold;vertical-align:top">delimiters</td><td valign="top">:</td><td><div><table><tr><td><div>{{</div></td></tr><tr><td><div>}}</div></td></tr></table></div></td></tr><tr><td style="font-weight:bold;vertical-align:top">files</td><td valign="top">:</td><td><div><table><tr><td><div>/siriadmin/static/js/jquery.js</div></td></tr><tr><td><div>/siriadmin/static/css/calendar.css</div></td></tr><tr><td><div>/siriadmin/static/js/calendar.js</div></td></tr><tr><td><div>/siriadmin/static/js/web2py.js</div></td></tr><tr><td><div>/siriadmin/static/css/web2py.css</div></td></tr><tr><td><div>/siriadmin/static/css/bootstrap.min.css</div></td></tr><tr><td><div>/siriadmin/static/css/bootstrap-responsive.min.css</div></td></tr><tr><td><div>/siriadmin/static/css/web2py_bootstrap.css</div></td></tr></table></div></td></tr><tr><td style="font-weight:bold;vertical-align:top">flash</td><td valign="top">:</td><td><div></div></td></tr><tr><td style="font-weight:bold;vertical-align:top">generic_patterns</td><td valign="top">:</td><td><div><table><tr><td><div>*</div></td></tr></table></div></td></tr><tr><td style="font-weight:bold;vertical-align:top">google_analytics_id</td><td valign="top">:</td><td><div>None</div></td></tr><tr><td style="font-weight:bold;vertical-align:top">headers</td><td valign="top">:</td><td><div><table><tr><td style="font-weight:bold;vertical-align:top">X-Powered-By</td><td valign="top">:</td><td><div>web2py</div></td></tr></table></div></td></tr><tr><td style="font-weight:bold;vertical-align:top">logo</td><td valign="top">:</td><td><div><a class="brand" href="/siriadmin/default/clockadmin"><b>SIRI</b>&trade;&nbsp;</a></div></td></tr><tr><td style="font-weight:bold;vertical-align:top">menu</td><td valign="top">:</td><td><div><table><tr><td><div><table><tr><td><div>Home</div></td></tr><tr><td><div>False</div></td></tr><tr><td><div>/siriadmin/default/index</div></td></tr><tr><td><div><table></table></div></td></tr></table></div></td></tr><tr><td><div><table><tr><td><div><span class="highlighted">web2py</span></div></td></tr><tr><td><div>False</div></td></tr><tr><td><div>http://web2py.com</div></td></tr><tr><td><div><table><tr><td><div><table><tr><td><div>My Sites</div></td></tr><tr><td><div>False</div></td></tr><tr><td><div>/admin/default/site</div></td></tr></table></div></td></tr><tr><td><div><table><tr><td><div>This App</div></td></tr><tr><td><div>False</div></td></tr><tr><td><div>/admin/default/design/siriadmin</div></td></tr><tr><td><div>[(&lt;lazyT &#x27;Controller&#x27;&gt;, False, &#x27;/admin/default/edit/siriadmin/controllers/timeclock.py&#x27;), (&lt;lazyT &#x27;View&#x27;&gt;, False, &#x27;/admin/default/edit/siriadmin/views/timeclock/mentortrack.html&#x27;), (&lt;lazyT &#x27;Layout&#x27;&gt;, False, &#x27;/admin/default/edit/siriadmin/views/layout.html&#x27;), (&lt;lazyT &#x27;Stylesheet&#x27;&gt;, False, &#x27;/admin/default/edit/siriadmin/static/css/web2py.css&#x27;), (&lt;lazyT &#x27;DB Model&#x27;&gt;, False, &#x27;/admin/default/edit/siriadmin/models/db.py&#x27;), (&lt;lazyT &#x27;Menu Model&#x27;&gt;, False, &#x27;/admin/default/edit/siriadmin/models/menu.py&#x27;), (&lt;lazyT &#x27;Database&#x27;&gt;, False, &#x27;/siriadmin/appadmin/index&#x27;), (&lt;lazyT &#x27;Errors&#x27;&gt;, False, &#x27;/admin/default/errors/siriadmin&#x27;), (&lt;lazyT &#x27;About&#x27;&gt;, False, &#x27;/admin/default/about/siriadmin&#x27;)]</div></td></tr></table></div></td></tr><tr><td><div><table><tr><td><div>web2py.com</div></td></tr><tr><td><div>False</div></td></tr><tr><td><div>http://www.web2py.com</div></td></tr><tr><td><div>[(&lt;lazyT &#x27;Download&#x27;&gt;, False, &#x27;http://www.web2py.com/examples/default/download&#x27;), (&lt;lazyT &#x27;Support&#x27;&gt;, False, &#x27;http://www.web2py.com/examples/default/support&#x27;), (&lt;lazyT &#x27;Demo&#x27;&gt;, False, &#x27;http://web2py.com/demo_admin&#x27;), (&lt;lazyT &#x27;Quick Examples&#x27;&gt;, False, &#x27;http://web2py.com/examples/default/examples&#x27;), (&lt;lazyT &#x27;FAQ&#x27;&gt;, False, &#x27;http://web2py.com/AlterEgo&#x27;), (&lt;lazyT &#x27;Videos&#x27;&gt;, False, &#x27;http://www.web2py.com/examples/default/videos/&#x27;), (&lt;lazyT &#x27;Free Applications&#x27;&gt;, False, &#x27;http://web2py.com/appliances&#x27;), (&lt;lazyT &#x27;Plugins&#x27;&gt;, False, &#x27;http://web2py.com/plugins&#x27;), (&lt;lazyT &#x27;Layouts&#x27;&gt;, False, &#x27;http://web2py.com/layouts&#x27;), (&lt;lazyT &#x27;Recipes&#x27;&gt;, False, &#x27;http://web2pyslices.com/&#x27;), (&lt;lazyT &#x27;Semantic&#x27;&gt;, False, &#x27;http://web2py.com/semantic&#x27;)]</div></td></tr></table></div></td></tr><tr><td><div><table><tr><td><div>Documentation</div></td></tr><tr><td><div>False</div></td></tr><tr><td><div>http://www.web2py.com/book</div></td></tr><tr><td><div>[(&lt;lazyT &#x27;Preface&#x27;&gt;, False, &#x27;http://www.web2py.com/book/default/chapter/00&#x27;), (&lt;lazyT &#x27;Introduction&#x27;&gt;, False, &#x27;http://www.web2py.com/book/default/chapter/01&#x27;), (&lt;lazyT &#x27;Python&#x27;&gt;, False, &#x27;http://www.web2py.com/book/default/chapter/02&#x27;), (&lt;lazyT &#x27;Overview&#x27;&gt;, False, &#x27;http://www.web2py.com/book/default/chapter/03&#x27;), (&lt;lazyT &#x27;The Core&#x27;&gt;, False, &#x27;http://www.web2py.com/book/default/chapter/04&#x27;), (&lt;lazyT &#x27;The Views&#x27;&gt;, False, &#x27;http://www.web2py.com/book/default/chapter/05&#x27;), (&lt;lazyT &#x27;Database&#x27;&gt;, False, &#x27;http://www.web2py.com/book/default/chapter/06&#x27;), (&lt;lazyT &#x27;Forms and Validators&#x27;&gt;, False, &#x27;http://www.web2py.com/book/default/chapter/07&#x27;), (&lt;lazyT &#x27;Email and SMS&#x27;&gt;, False, &#x27;http://www.web2py.com/book/default/chapter/08&#x27;), (&lt;lazyT &#x27;Access Control&#x27;&gt;, False, &#x27;http://www.web2py.com/book/default/chapter/09&#x27;), (&lt;lazyT &#x27;Services&#x27;&gt;, False, &#x27;http://www.web2py.com/book/default/chapter/10&#x27;), (&lt;lazyT &#x27;Ajax Recipes&#x27;&gt;, False, &#x27;http://www.web2py.com/book/default/chapter/11&#x27;), (&lt;lazyT &#x27;Components and Plugins&#x27;&gt;, False, &#x27;http://www.web2py.com/book/default/chapter/12&#x27;), (&lt;lazyT &#x27;Deployment Recipes&#x27;&gt;, False, &#x27;http://www.web2py.com/book/default/chapter/13&#x27;), (&lt;lazyT &#x27;Other Recipes&#x27;&gt;, False, &#x27;http://www.web2py.com/book/default/chapter/14&#x27;), (&lt;lazyT &#x27;Buy this book&#x27;&gt;, False, &#x27;http://stores.lulu.com/web2py&#x27;)]</div></td></tr></table></div></td></tr><tr><td><div><table><tr><td><div>Community</div></td></tr><tr><td><div>False</div></td></tr><tr><td><div>None</div></td></tr><tr><td><div>[(&lt;lazyT &#x27;Groups&#x27;&gt;, False, &#x27;http://www.web2py.com/examples/default/usergroups&#x27;), (&lt;lazyT &#x27;Twitter&#x27;&gt;, False, &#x27;http://twitter.com/web2py&#x27;), (&lt;lazyT &#x27;Live Chat&#x27;&gt;, False, &#x27;http://webchat.freenode.net/?channels=web2py&#x27;)]</div></td></tr></table></div></td></tr><tr><td><div><table><tr><td><div>Plugins</div></td></tr><tr><td><div>False</div></td></tr><tr><td><div>None</div></td></tr><tr><td><div>[(&#x27;plugin_wiki&#x27;, False, &#x27;http://web2py.com/examples/default/download&#x27;), (&lt;lazyT &#x27;Other Plugins&#x27;&gt;, False, &#x27;http://web2py.com/plugins&#x27;), (&lt;lazyT &#x27;Layout Plugins&#x27;&gt;, False, &#x27;http://web2py.com/layouts&#x27;)]</div></td></tr></table></div></td></tr></table></div></td></tr></table></div></td></tr></table></div></td></tr><tr><td style="font-weight:bold;vertical-align:top">meta</td><td valign="top">:</td><td><div><table><tr><td style="font-weight:bold;vertical-align:top">author</td><td valign="top">:</td><td><div>Evan Caldwell &lt;evancaldwell@yahoo.com&gt;</div></td></tr><tr><td style="font-weight:bold;vertical-align:top">description</td><td valign="top">:</td><td><div>A time clock for SIRI employees</div></td></tr><tr><td style="font-weight:bold;vertical-align:top">generator</td><td valign="top">:</td><td><div>Web2py Web Framework</div></td></tr><tr><td style="font-weight:bold;vertical-align:top">keywords</td><td valign="top">:</td><td><div>SIRI, time, clock</div></td></tr></table></div></td></tr><tr><td style="font-weight:bold;vertical-align:top">models_to_run</td><td valign="top">:</td><td><div><table><tr><td><div>^\\w+\\.py$</div></td></tr><tr><td><div>^timeclock/\\w+\\.py$</div></td></tr><tr><td><div>^timeclock/mentortrack/\\w+\\.py$</div></td></tr></table></div></td></tr><tr><td style="font-weight:bold;vertical-align:top">postprocessing</td><td valign="top">:</td><td><div><table></table></div></td></tr><tr><td style="font-weight:bold;vertical-align:top">session_cookie_expires</td><td valign="top">:</td><td><div>None</div></td></tr><tr><td style="font-weight:bold;vertical-align:top">session_data_name</td><td valign="top">:</td><td><div>session_data_siriadmin</div></td></tr><tr><td style="font-weight:bold;vertical-align:top">session_file</td><td valign="top">:</td><td><div>&lt;open file &#x27;/Users/adin/Work/SIRI/TimeClock/siri/applications/siriadmin/sessions/127.0.0.1-035af0be-6b4f-4ced-83c8-beb0fbc5c152&#x27;, mode &#x27;rb+&#x27; at 0x111a42660&gt;</div></td></tr><tr><td style="font-weight:bold;vertical-align:top">session_filename</td><td valign="top">:</td><td><div>/Users/adin/Work/SIRI/TimeClock/siri/applications/siriadmin/sessions/127.0.0.1-035af0be-6b4f-4ced-83c8-beb0fbc5c152</div></td></tr><tr><td style="font-weight:bold;vertical-align:top">session_id</td><td valign="top">:</td><td><div>127.0.0.1-035af0be-6b4f-4ced-83c8-beb0fbc5c152</div></td></tr><tr><td style="font-weight:bold;vertical-align:top">session_id_name</td><td valign="top">:</td><td><div>session_id_siriadmin</div></td></tr><tr><td style="font-weight:bold;vertical-align:top">session_locked</td><td valign="top">:</td><td><div>True</div></td></tr><tr><td style="font-weight:bold;vertical-align:top">session_new</td><td valign="top">:</td><td><div>False</div></td></tr><tr><td style="font-weight:bold;vertical-align:top">session_storage_type</td><td valign="top">:</td><td><div>file</div></td></tr><tr><td style="font-weight:bold;vertical-align:top">status</td><td valign="top">:</td><td><div>200</div></td></tr><tr><td style="font-weight:bold;vertical-align:top">subtitle</td><td valign="top">:</td><td><div>customize me!</div></td></tr><tr><td style="font-weight:bold;vertical-align:top">title</td><td valign="top">:</td><td><div>SIRI Admin</div></td></tr><tr><td style="font-weight:bold;vertical-align:top">view</td><td valign="top">:</td><td><div>timeclock/mentortrack.html</div></td></tr></table></div>'
tRp521
sS'locals'
p522
(dp523
S'user_id'
p524
S'3L'
p525
sS'row'
p526
S"<Row {'acheived_date': datetime.date(2014, 1, 3)...goal_date': datetime.date(2014, 1, 2), 'id': 2L}>"
p527
sssS'traceback'
p528
S'Traceback (most recent call last):\n  File "/Users/adin/Work/SIRI/TimeClock/siri/gluon/restricted.py", line 212, in restricted\n    exec ccode in environment\n  File "/Users/adin/Work/SIRI/TimeClock/siri/applications/siriadmin/views/timeclock/mentortrack.html", line 87, in <module>\n  File "/Users/adin/Work/SIRI/TimeClock/siri/gluon/globals.py", line 203, in write\n    self.body.write(xmlescape(data))\n  File "/Users/adin/Work/SIRI/TimeClock/siri/gluon/html.py", line 120, in xmlescape\n    return data.xml()\n  File "/Users/adin/Work/SIRI/TimeClock/siri/gluon/html.py", line 920, in xml\n    (fa, co) = self._xml()\n  File "/Users/adin/Work/SIRI/TimeClock/siri/gluon/html.py", line 911, in _xml\n    self.components])\n  File "/Users/adin/Work/SIRI/TimeClock/siri/gluon/html.py", line 120, in xmlescape\n    return data.xml()\n  File "/Users/adin/Work/SIRI/TimeClock/siri/gluon/html.py", line 920, in xml\n    (fa, co) = self._xml()\n  File "/Users/adin/Work/SIRI/TimeClock/siri/gluon/html.py", line 911, in _xml\n    self.components])\n  File "/Users/adin/Work/SIRI/TimeClock/siri/gluon/html.py", line 120, in xmlescape\n    return data.xml()\n  File "/Users/adin/Work/SIRI/TimeClock/siri/gluon/html.py", line 920, in xml\n    (fa, co) = self._xml()\n  File "/Users/adin/Work/SIRI/TimeClock/siri/gluon/html.py", line 911, in _xml\n    self.components])\n  File "/Users/adin/Work/SIRI/TimeClock/siri/gluon/html.py", line 120, in xmlescape\n    return data.xml()\n  File "/Users/adin/Work/SIRI/TimeClock/siri/gluon/html.py", line 920, in xml\n    (fa, co) = self._xml()\n  File "/Users/adin/Work/SIRI/TimeClock/siri/gluon/html.py", line 911, in _xml\n    self.components])\n  File "/Users/adin/Work/SIRI/TimeClock/siri/gluon/html.py", line 120, in xmlescape\n    return data.xml()\n  File "/Users/adin/Work/SIRI/TimeClock/siri/gluon/html.py", line 920, in xml\n    (fa, co) = self._xml()\n  File "/Users/adin/Work/SIRI/TimeClock/siri/gluon/html.py", line 911, in _xml\n    self.components])\n  File "/Users/adin/Work/SIRI/TimeClock/siri/gluon/html.py", line 120, in xmlescape\n    return data.xml()\n  File "/Users/adin/Work/SIRI/TimeClock/siri/gluon/dal.py", line 10454, in xml\n    return sqlhtml.SQLTABLE(self).xml()\n  File "/Users/adin/Work/SIRI/TimeClock/siri/gluon/sqlhtml.py", line 2902, in __init__\n    r = represent(field, r, record)\n  File "/Users/adin/Work/SIRI/TimeClock/siri/gluon/sqlhtml.py", line 66, in represent\n    return f(value, record)\n  File "/Users/adin/Work/SIRI/TimeClock/siri/applications/siriadmin/models/db.py", line 195, in <lambda>\n    Field(\'user_id\', \'reference auth_user\', label=\'Mentee\', requires=IS_IN_DB(db, db.mentorTrack_mentees.user_id), represent = lambda user_id,row: row.auth_user.first_name),\nAttributeError: \'Row\' object has no attribute \'auth_user\'\n'
p529
s.