(dp1
S'output'
p2
S'<class \'sqlite3.OperationalError\'> near ")": syntax error'
p3
sS'layer'
p4
S'/Users/adin/Work/SIRI/TimeClock/siri/applications/siriadmin/controllers/mentorTrack.py'
p5
sS'code'
p6
S'# coding: utf8\n# try something like\ndef index(): return dict(message="hello from mentorTrack.py")\n\ndef projects():\n\tcount = db.mentorTrack_projects.project_name.count()\n\tprojects = db(db.mentorTrack_projects.project_name==db.siri_projects.id).select(db.siri_projects.name, count, groupby=db.mentorTrack_projects.project_name, orderby=db.siri_projects.name)\n\tmilestones = db(db.mentorTrack_projects.project_name==db.siri_projects.id).select(orderby=db.siri_projects.name)#, groupby=db.mentorTrack_projects.project_name)\n\n\tuserAlias = db.auth_user.with_alias(\'mentee_id\')\n\tmentorAlias = db.auth_user.with_alias(\'mentor_id\')\n\tmentorTrack_mentees = db((db.mentorTrack_mentees.project_name==db.siri_projects.id)&\n\t\t(db.mentorTrack_mentees.user_id==userAlias.id)&\n\t\t(db.mentorTrack_mentees.mentor_id==mentorAlias.id)).select(orderby=db.mentorTrack_mentees.project_name)\n\n\tbuildProjectForm = SQLFORM(db.mentorTrack_projects).process(next=URL(\'projects\'))\n\tassignMentorTrackForm = SQLFORM(db.mentorTrack_mentees).process(next=URL(\'projects\'))\n\treturn locals()\n\n\ndef mentees():\n\n\treturn locals()\n\n\ndef editEntries():\n\t"""\n\tdb.define_table(\'mentorTrack_projects\',\n    Field(\'project_name\', \'reference siri_projects\', requires=IS_IN_DB(db, db.siri_projects.id, \'%(name)s\')),\n    Field(\'milemark\', \'string\')\n    )\n\ndb.define_table(\'mentorTrack_mentees\',\n    Field(\'user_id\', \'reference auth_user\', label=\'Mentee\', unique=True, requires=IS_IN_DB(db, db.auth_user.id, \'%(first_name)s %(last_name)s\')),\n    Field(\'mentor_id\', \'reference auth_user\', label=\'Mentor\', requires=IS_IN_DB(db, db.auth_user.id, \'%(first_name)s %(last_name)s\')),\n    Field(\'project_name\', \'reference siri_projects\', requires=IS_IN_DB(db, db.siri_projects.id, \'%(name)s\')),\n    format=\'%(user_id)s\'\n    #Field(\'project_id\', \'reference mentorTrack_projects\', requires=IS_IN_DB(db, db.mentorTrack_projects.id, \'%(project_name)%\'))\n    )\n\ndb.define_table(\'mentorTrack_data\',\n    Field(\'user_id\', \'reference auth_user\', label=\'Mentee\'),\n    Field(\'milemark\', \'reference mentorTrack_projects\', requires=IS_IN_DB(db, db.mentorTrack_projects.id, \'%(milemark)s\')),\n    Field(\'goal_date\', \'date\',requires = IS_DATE(format=\'%m/%d/%Y\')),\n    Field(\'acheived_date\', \'date\',requires = IS_DATE(format=\'%m/%d/%Y\'))\n    )\nmenteeFilter = db(db.auth_user.id==db.mentorTrack_mentees.user_id)\ndb.mentorTrack_data.user_id.requires = IS_IN_DB(menteeFilter,\'auth_user.id\',\'%(first_name)s %(last_name)s\')\n\n\t"""\n\treturn locals()\n\ndef personal():\n\tproject = db(db.mentorTrack_mentees.user_id == session.auth.user.id).select(db.mentorTrack_mentees.project_name)\n\tif len(project) != 1:\n\t\traise HTTP(404)\n\tproject = project[0].project_name\n\tmilemark = db(db.mentorTrack_projects.project_name == project)\n\tdataTable = db((db.mentorTrack_mentees.user_id == session.auth.user.id)&\t# our users data\n\t\t(db.mentorTrack_mentees.project_name == db.siri_projects.id)&\t\t\t# get project name\t\n\t\t(db.mentorTrack_projects.project_name == db.mentorTrack_mentees.project_name)& # get the milestones for that project\n\t\t()).select()\n\treturn locals()\n\n\nresponse._vars=response._caller(personal)\n'
p7
sS'snapshot'
p8
(dp9
S'exception'
p10
(dp11
S'__module__'
p12
S"'sqlite3'"
p13
sS'__getslice__'
p14
S"<method-wrapper '__getslice__' of OperationalError object>"
p15
sS'__str__'
p16
S"<method-wrapper '__str__' of OperationalError object>"
p17
sS'__reduce__'
p18
S'<built-in method __reduce__ of OperationalError object>'
p19
sS'__dict__'
p20
S'{}'
p21
sS'__sizeof__'
p22
S'<built-in method __sizeof__ of OperationalError object>'
p23
sS'__weakref__'
p24
S'None'
p25
sS'__init__'
p26
S"<method-wrapper '__init__' of OperationalError object>"
p27
sS'__setattr__'
p28
S"<method-wrapper '__setattr__' of OperationalError object>"
p29
sS'__reduce_ex__'
p30
S'<built-in method __reduce_ex__ of OperationalError object>'
p31
sS'__new__'
p32
S'<built-in method __new__ of type object>'
p33
sS'__format__'
p34
S'<built-in method __format__ of OperationalError object>'
p35
sS'__class__'
p36
S"<class 'sqlite3.OperationalError'>"
p37
sS'__doc__'
p38
S'None'
p39
sS'__getitem__'
p40
S"<method-wrapper '__getitem__' of OperationalError object>"
p41
sS'__setstate__'
p42
S'<built-in method __setstate__ of OperationalError object>'
p43
sS'__getattribute__'
p44
S"<method-wrapper '__getattribute__' of OperationalError object>"
p45
sS'args'
p46
S'(\'near ")": syntax error\',)'
p47
sS'__subclasshook__'
p48
S'<built-in method __subclasshook__ of type object>'
p49
sS'__unicode__'
p50
S'<built-in method __unicode__ of OperationalError object>'
p51
sS'__delattr__'
p52
S"<method-wrapper '__delattr__' of OperationalError object>"
p53
sS'__repr__'
p54
S"<method-wrapper '__repr__' of OperationalError object>"
p55
sS'__hash__'
p56
S"<method-wrapper '__hash__' of OperationalError object>"
p57
ssS'evalue'
p58
S'near ")": syntax error'
p59
sS'request'
p60
cgluon.html
XML_unpickle
p61
(S's\xb4[\x00\x00<div><table><tr><td style="font-weight:bold;vertical-align:top">ajax</td><td valign="top">:</td><td><div>True</div></td></tr><tr><td style="font-weight:bold;vertical-align:top">application</td><td valign="top">:</td><td><div>siriadmin</div></td></tr><tr><td style="font-weight:bold;vertical-align:top">args</td><td valign="top">:</td><td><div><table></table></div></td></tr><tr><td style="font-weight:bold;vertical-align:top">body</td><td valign="top">:</td><td><div>&lt;cStringIO.StringO object at 0x1143c00d8&gt;</div></td></tr><tr><td style="font-weight:bold;vertical-align:top">cid</td><td valign="top">:</td><td><div>c0205565710272</div></td></tr><tr><td style="font-weight:bold;vertical-align:top">client</td><td valign="top">:</td><td><div>127.0.0.1</div></td></tr><tr><td style="font-weight:bold;vertical-align:top">controller</td><td valign="top">:</td><td><div>mentorTrack</div></td></tr><tr><td style="font-weight:bold;vertical-align:top">cookies</td><td valign="top">:</td><td><div><table><tr><td style="font-weight:bold;vertical-align:top">session_id_admin</td><td valign="top">:</td><td><div>127.0.0.1-ebe5ca4f-6391-4175-8c8b-d9562a433670<table><tr><td style="font-weight:bold;vertical-align:top">comment</td><td valign="top">:</td><td><div></div></td></tr><tr><td style="font-weight:bold;vertical-align:top">domain</td><td valign="top">:</td><td><div></div></td></tr><tr><td style="font-weight:bold;vertical-align:top">expires</td><td valign="top">:</td><td><div></div></td></tr><tr><td style="font-weight:bold;vertical-align:top">httponly</td><td valign="top">:</td><td><div></div></td></tr><tr><td style="font-weight:bold;vertical-align:top">max-age</td><td valign="top">:</td><td><div></div></td></tr><tr><td style="font-weight:bold;vertical-align:top">path</td><td valign="top">:</td><td><div></div></td></tr><tr><td style="font-weight:bold;vertical-align:top">secure</td><td valign="top">:</td><td><div></div></td></tr><tr><td style="font-weight:bold;vertical-align:top">version</td><td valign="top">:</td><td><div></div></td></tr></table></div></td></tr><tr><td style="font-weight:bold;vertical-align:top">session_id_siriadmin</td><td valign="top">:</td><td><div>127.0.0.1-035af0be-6b4f-4ced-83c8-beb0fbc5c152<table><tr><td style="font-weight:bold;vertical-align:top">comment</td><td valign="top">:</td><td><div></div></td></tr><tr><td style="font-weight:bold;vertical-align:top">domain</td><td valign="top">:</td><td><div></div></td></tr><tr><td style="font-weight:bold;vertical-align:top">expires</td><td valign="top">:</td><td><div></div></td></tr><tr><td style="font-weight:bold;vertical-align:top">httponly</td><td valign="top">:</td><td><div></div></td></tr><tr><td style="font-weight:bold;vertical-align:top">max-age</td><td valign="top">:</td><td><div></div></td></tr><tr><td style="font-weight:bold;vertical-align:top">path</td><td valign="top">:</td><td><div></div></td></tr><tr><td style="font-weight:bold;vertical-align:top">secure</td><td valign="top">:</td><td><div></div></td></tr><tr><td style="font-weight:bold;vertical-align:top">version</td><td valign="top">:</td><td><div></div></td></tr></table></div></td></tr><tr><td style="font-weight:bold;vertical-align:top">session_id_welcome</td><td valign="top">:</td><td><div>127.0.0.1-99bb6ee0-0784-458b-9aa9-1f0712b27d48<table><tr><td style="font-weight:bold;vertical-align:top">comment</td><td valign="top">:</td><td><div></div></td></tr><tr><td style="font-weight:bold;vertical-align:top">domain</td><td valign="top">:</td><td><div></div></td></tr><tr><td style="font-weight:bold;vertical-align:top">expires</td><td valign="top">:</td><td><div></div></td></tr><tr><td style="font-weight:bold;vertical-align:top">httponly</td><td valign="top">:</td><td><div></div></td></tr><tr><td style="font-weight:bold;vertical-align:top">max-age</td><td valign="top">:</td><td><div></div></td></tr><tr><td style="font-weight:bold;vertical-align:top">path</td><td valign="top">:</td><td><div></div></td></tr><tr><td style="font-weight:bold;vertical-align:top">secure</td><td valign="top">:</td><td><div></div></td></tr><tr><td style="font-weight:bold;vertical-align:top">version</td><td valign="top">:</td><td><div></div></td></tr></table></div></td></tr></table></div></td></tr><tr><td style="font-weight:bold;vertical-align:top">env</td><td valign="top">:</td><td><div><table><tr><td style="font-weight:bold;vertical-align:top">app_folders</td><td valign="top">:</td><td><div>set([&#x27;/Users/adin/Work/SIRI/TimeClock/siri/applications/welcome/&#x27;, &#x27;/Users/adin/Work/SIRI/TimeClock/siri/applications/admin/&#x27;, &#x27;/Users/adin/Work/SIRI/TimeClock/siri/applications/siriadmin/&#x27;])</div></td></tr><tr><td style="font-weight:bold;vertical-align:top">applications_parent</td><td valign="top">:</td><td><div>/Users/adin/Work/SIRI/TimeClock/siri</div></td></tr><tr><td style="font-weight:bold;vertical-align:top">cmd_args</td><td valign="top">:</td><td><div><table></table></div></td></tr><tr><td style="font-weight:bold;vertical-align:top">cmd_options</td><td valign="top">:</td><td><div>&lt;Values at 0x110509bd8: {&#x27;verbose&#x27;: False, &#x27;ip&#x27;: &#x27;127.0.0.1&#x27;, &#x27;with_scheduler&#x27;: False, &#x27;ips&#x27;: [&#x27;fe80::6aa8:6dff:fe1b:d9f2%en1&#x27;, &#x27;172.16.98.153&#x27;], &#x27;shutdown_timeout&#x27;: 5, &#x27;taskbar&#x27;: False, &#x27;with_coverage&#x27;: False, &#x27;port&#x27;: 8000, &#x27;maxthreads&#x27;: None, &#x27;softcron&#x27;: False, &#x27;server_name&#x27;: &#x27;Aphro.local&#x27;, &#x27;bpython&#x27;: False, &#x27;nogui&#x27;: False, &#x27;pid_filename&#x27;: &#x27;httpserver.pid&#x27;, &#x27;extcron&#x27;: False, &#x27;runcron&#x27;: False, &#x27;run_system_tests&#x27;: False, &#x27;test&#x27;: None, &#x27;folder&#x27;: &#x27;/Users/adin/Work/SIRI/TimeClock/siri&#x27;, &#x27;config&#x27;: &#x27;&#x27;, &#x27;minthreads&#x27;: None, &#x27;winservice&#x27;: &#x27;&#x27;, &#x27;shell&#x27;: None, &#x27;run&#x27;: &#x27;&#x27;, &#x27;log_filename&#x27;: &#x27;httpserver.log&#x27;, &#x27;debuglevel&#x27;: 30, &#x27;args&#x27;: [&#x27;&#x27;], &#x27;socket_timeout&#x27;: 5, &#x27;ssl_ca_certificate&#x27;: None, &#x27;scheduler&#x27;: None, &#x27;profiler_filename&#x27;: None, &#x27;ssl_private_key&#x27;: &#x27;&#x27;, &#x27;scheduler_groups&#x27;: None, &#x27;password&#x27;: &#x27;nimda&#x27;, &#x27;request_queue_size&#x27;: 5, &#x27;ssl_certificate&#x27;: &#x27;&#x27;, &#x27;cronjob&#x27;: False, &#x27;numthreads&#x27;: None, &#x27;quiet&#x27;: False, &#x27;interfaces&#x27;: None, &#x27;import_models&#x27;: False, &#x27;timeout&#x27;: 10, &#x27;plain&#x27;: False, &#x27;nobanner&#x27;: False}&gt;</div></td></tr><tr><td style="font-weight:bold;vertical-align:top">db_sessions</td><td valign="top">:</td><td><div>set([])</div></td></tr><tr><td style="font-weight:bold;vertical-align:top">debugging</td><td valign="top">:</td><td><div>True</div></td></tr><tr><td style="font-weight:bold;vertical-align:top">gluon_parent</td><td valign="top">:</td><td><div>/Users/adin/Work/SIRI/TimeClock/siri</div></td></tr><tr><td style="font-weight:bold;vertical-align:top">http_accept</td><td valign="top">:</td><td><div>*/*</div></td></tr><tr><td style="font-weight:bold;vertical-align:top">http_accept_encoding</td><td valign="top">:</td><td><div>gzip, deflate</div></td></tr><tr><td style="font-weight:bold;vertical-align:top">http_accept_language</td><td valign="top">:</td><td><div>en-US,en;q=0.5</div></td></tr><tr><td style="font-weight:bold;vertical-align:top">http_cache_control</td><td valign="top">:</td><td><div>max-age=0</div></td></tr><tr><td style="font-weight:bold;vertical-align:top">http_connection</td><td valign="top">:</td><td><div>keep-alive</div></td></tr><tr><td style="font-weight:bold;vertical-align:top">http_cookie</td><td valign="top">:</td><td><div>session_id_welcome=127.0.0.1-99bb6ee0-0784-458b-9aa9-1f0712b27d48; session_id_admin=127.0.0.1-ebe5ca4f-6391-4175-8c8b-d9562a433670; session_id_siriadmin=127.0.0.1-035af0be-6b4f-4ced-83c8-beb0fbc5c152</div></td></tr><tr><td style="font-weight:bold;vertical-align:top">http_dnt</td><td valign="top">:</td><td><div>1</div></td></tr><tr><td style="font-weight:bold;vertical-align:top">http_host</td><td valign="top">:</td><td><div>127.0.0.1:8000</div></td></tr><tr><td style="font-weight:bold;vertical-align:top">http_referer</td><td valign="top">:</td><td><div>http://127.0.0.1:8000/siriadmin/timeclock/employeedash</div></td></tr><tr><td style="font-weight:bold;vertical-align:top">http_user_agent</td><td valign="top">:</td><td><div>Mozilla/5.0 (Macintosh; Intel Mac OS X 10.9; rv:26.0) Gecko/20100101 Firefox/26.0</div></td></tr><tr><td style="font-weight:bold;vertical-align:top">http_web2py_component_element</td><td valign="top">:</td><td><div>c0205565710272</div></td></tr><tr><td style="font-weight:bold;vertical-align:top">http_web2py_component_location</td><td valign="top">:</td><td><div>http://127.0.0.1:8000/siriadmin/timeclock/employeedash</div></td></tr><tr><td style="font-weight:bold;vertical-align:top">http_x_requested_with</td><td valign="top">:</td><td><div>XMLHttpRequest</div></td></tr><tr><td style="font-weight:bold;vertical-align:top">is_jython</td><td valign="top">:</td><td><div>False</div></td></tr><tr><td style="font-weight:bold;vertical-align:top">is_pypy</td><td valign="top">:</td><td><div>False</div></td></tr><tr><td style="font-weight:bold;vertical-align:top">local_hosts</td><td valign="top">:</td><td><div><table><tr><td><div>172.16.98.153</div></td></tr><tr><td><div>Aphro.local</div></td></tr><tr><td><div>::ffff:127.0.0.1</div></td></tr><tr><td><div>::1</div></td></tr><tr><td><div>fe80::6aa8:6dff:fe1b:d9f2%en1</div></td></tr><tr><td><div>127.0.0.1</div></td></tr></table></div></td></tr><tr><td style="font-weight:bold;vertical-align:top">path_info</td><td valign="top">:</td><td><div>/siriadmin/mentorTrack/personal.load</div></td></tr><tr><td style="font-weight:bold;vertical-align:top">query_string</td><td valign="top">:</td><td><div>_signature=1b1b535dbb8f14e63883a9ed2610e314d49ba9c8</div></td></tr><tr><td style="font-weight:bold;vertical-align:top">remote_addr</td><td valign="top">:</td><td><div>127.0.0.1</div></td></tr><tr><td style="font-weight:bold;vertical-align:top">remote_port</td><td valign="top">:</td><td><div>54399</div></td></tr><tr><td style="font-weight:bold;vertical-align:top">request_method</td><td valign="top">:</td><td><div>GET</div></td></tr><tr><td style="font-weight:bold;vertical-align:top">request_uri</td><td valign="top">:</td><td><div>/siriadmin/mentorTrack/personal.load?_signature=1b1b535dbb8f14e63883a9ed2610e314d49ba9c8</div></td></tr><tr><td style="font-weight:bold;vertical-align:top">script_name</td><td valign="top">:</td><td><div></div></td></tr><tr><td style="font-weight:bold;vertical-align:top">server_name</td><td valign="top">:</td><td><div>Aphro.local</div></td></tr><tr><td style="font-weight:bold;vertical-align:top">server_port</td><td valign="top">:</td><td><div>8000</div></td></tr><tr><td style="font-weight:bold;vertical-align:top">server_protocol</td><td valign="top">:</td><td><div>HTTP/1.1</div></td></tr><tr><td style="font-weight:bold;vertical-align:top">server_software</td><td valign="top">:</td><td><div>Rocket 1.2.6</div></td></tr><tr><td style="font-weight:bold;vertical-align:top">web2py_path</td><td valign="top">:</td><td><div>/Users/adin/Work/SIRI/TimeClock/siri</div></td></tr><tr><td style="font-weight:bold;vertical-align:top">web2py_version</td><td valign="top">:</td><td><div>2.5.1-stable+timestamp.2013.06.06.15.39.19</div></td></tr><tr><td style="font-weight:bold;vertical-align:top">wsgi_errors</td><td valign="top">:</td><td><div>&lt;open file &#x27;&lt;stderr&gt;&#x27;, mode &#x27;w&#x27; at 0x10f6fa1e0&gt;</div></td></tr><tr><td style="font-weight:bold;vertical-align:top">wsgi_file_wrapper</td><td valign="top">:</td><td><div>&lt;class wsgiref.util.FileWrapper at 0x1104a9390&gt;</div></td></tr><tr><td style="font-weight:bold;vertical-align:top">wsgi_input</td><td valign="top">:</td><td><div>&lt;socket._fileobject object at 0x11441ead0&gt;</div></td></tr><tr><td style="font-weight:bold;vertical-align:top">wsgi_multiprocess</td><td valign="top">:</td><td><div>False</div></td></tr><tr><td style="font-weight:bold;vertical-align:top">wsgi_multithread</td><td valign="top">:</td><td><div>True</div></td></tr><tr><td style="font-weight:bold;vertical-align:top">wsgi_run_once</td><td valign="top">:</td><td><div>False</div></td></tr><tr><td style="font-weight:bold;vertical-align:top">wsgi_url_scheme</td><td valign="top">:</td><td><div>http</div></td></tr><tr><td style="font-weight:bold;vertical-align:top">wsgi_version</td><td valign="top">:</td><td><div><table><tr><td><div>1</div></td></tr><tr><td><div>0</div></td></tr></table></div></td></tr></table></div></td></tr><tr><td style="font-weight:bold;vertical-align:top">extension</td><td valign="top">:</td><td><div>load</div></td></tr><tr><td style="font-weight:bold;vertical-align:top">folder</td><td valign="top">:</td><td><div>/Users/adin/Work/SIRI/TimeClock/siri/applications/siriadmin/</div></td></tr><tr><td style="font-weight:bold;vertical-align:top">function</td><td valign="top">:</td><td><div>personal</div></td></tr><tr><td style="font-weight:bold;vertical-align:top">get_vars</td><td valign="top">:</td><td><div><table></table></div></td></tr><tr><td style="font-weight:bold;vertical-align:top">global_settings</td><td valign="top">:</td><td><div><table><tr><td style="font-weight:bold;vertical-align:top">app_folders</td><td valign="top">:</td><td><div>set([&#x27;/Users/adin/Work/SIRI/TimeClock/siri/applications/welcome/&#x27;, &#x27;/Users/adin/Work/SIRI/TimeClock/siri/applications/admin/&#x27;, &#x27;/Users/adin/Work/SIRI/TimeClock/siri/applications/siriadmin/&#x27;])</div></td></tr><tr><td style="font-weight:bold;vertical-align:top">applications_parent</td><td valign="top">:</td><td><div>/Users/adin/Work/SIRI/TimeClock/siri</div></td></tr><tr><td style="font-weight:bold;vertical-align:top">cmd_args</td><td valign="top">:</td><td><div><table></table></div></td></tr><tr><td style="font-weight:bold;vertical-align:top">cmd_options</td><td valign="top">:</td><td><div>&lt;Values at 0x110509bd8: {&#x27;verbose&#x27;: False, &#x27;ip&#x27;: &#x27;127.0.0.1&#x27;, &#x27;with_scheduler&#x27;: False, &#x27;ips&#x27;: [&#x27;fe80::6aa8:6dff:fe1b:d9f2%en1&#x27;, &#x27;172.16.98.153&#x27;], &#x27;shutdown_timeout&#x27;: 5, &#x27;taskbar&#x27;: False, &#x27;with_coverage&#x27;: False, &#x27;port&#x27;: 8000, &#x27;maxthreads&#x27;: None, &#x27;softcron&#x27;: False, &#x27;server_name&#x27;: &#x27;Aphro.local&#x27;, &#x27;bpython&#x27;: False, &#x27;nogui&#x27;: False, &#x27;pid_filename&#x27;: &#x27;httpserver.pid&#x27;, &#x27;extcron&#x27;: False, &#x27;runcron&#x27;: False, &#x27;run_system_tests&#x27;: False, &#x27;test&#x27;: None, &#x27;folder&#x27;: &#x27;/Users/adin/Work/SIRI/TimeClock/siri&#x27;, &#x27;config&#x27;: &#x27;&#x27;, &#x27;minthreads&#x27;: None, &#x27;winservice&#x27;: &#x27;&#x27;, &#x27;shell&#x27;: None, &#x27;run&#x27;: &#x27;&#x27;, &#x27;log_filename&#x27;: &#x27;httpserver.log&#x27;, &#x27;debuglevel&#x27;: 30, &#x27;args&#x27;: [&#x27;&#x27;], &#x27;socket_timeout&#x27;: 5, &#x27;ssl_ca_certificate&#x27;: None, &#x27;scheduler&#x27;: None, &#x27;profiler_filename&#x27;: None, &#x27;ssl_private_key&#x27;: &#x27;&#x27;, &#x27;scheduler_groups&#x27;: None, &#x27;password&#x27;: &#x27;nimda&#x27;, &#x27;request_queue_size&#x27;: 5, &#x27;ssl_certificate&#x27;: &#x27;&#x27;, &#x27;cronjob&#x27;: False, &#x27;numthreads&#x27;: None, &#x27;quiet&#x27;: False, &#x27;interfaces&#x27;: None, &#x27;import_models&#x27;: False, &#x27;timeout&#x27;: 10, &#x27;plain&#x27;: False, &#x27;nobanner&#x27;: False}&gt;</div></td></tr><tr><td style="font-weight:bold;vertical-align:top">db_sessions</td><td valign="top">:</td><td><div>set([])</div></td></tr><tr><td style="font-weight:bold;vertical-align:top">debugging</td><td valign="top">:</td><td><div>True</div></td></tr><tr><td style="font-weight:bold;vertical-align:top">gluon_parent</td><td valign="top">:</td><td><div>/Users/adin/Work/SIRI/TimeClock/siri</div></td></tr><tr><td style="font-weight:bold;vertical-align:top">is_jython</td><td valign="top">:</td><td><div>False</div></td></tr><tr><td style="font-weight:bold;vertical-align:top">is_pypy</td><td valign="top">:</td><td><div>False</div></td></tr><tr><td style="font-weight:bold;vertical-align:top">local_hosts</td><td valign="top">:</td><td><div><table><tr><td><div>172.16.98.153</div></td></tr><tr><td><div>Aphro.local</div></td></tr><tr><td><div>::ffff:127.0.0.1</div></td></tr><tr><td><div>::1</div></td></tr><tr><td><div>fe80::6aa8:6dff:fe1b:d9f2%en1</div></td></tr><tr><td><div>127.0.0.1</div></td></tr></table></div></td></tr><tr><td style="font-weight:bold;vertical-align:top">web2py_version</td><td valign="top">:</td><td><div>2.5.1-stable+timestamp.2013.06.06.15.39.19</div></td></tr></table></div></td></tr><tr><td style="font-weight:bold;vertical-align:top">is_https</td><td valign="top">:</td><td><div>False</div></td></tr><tr><td style="font-weight:bold;vertical-align:top">is_local</td><td valign="top">:</td><td><div>True</div></td></tr><tr><td style="font-weight:bold;vertical-align:top">is_restful</td><td valign="top">:</td><td><div>False</div></td></tr><tr><td style="font-weight:bold;vertical-align:top">now</td><td valign="top">:</td><td><div>datetime.datetime(2014, 1, 6, 16, 9, 16, 477912)</div></td></tr><tr><td style="font-weight:bold;vertical-align:top">post_vars</td><td valign="top">:</td><td><div><table></table></div></td></tr><tr><td style="font-weight:bold;vertical-align:top">raw_args</td><td valign="top">:</td><td><div></div></td></tr><tr><td style="font-weight:bold;vertical-align:top">raw_extension</td><td valign="top">:</td><td><div>load</div></td></tr><tr><td style="font-weight:bold;vertical-align:top">url</td><td valign="top">:</td><td><div>/siriadmin/mentorTrack/personal.load</div></td></tr><tr><td style="font-weight:bold;vertical-align:top">utcnow</td><td valign="top">:</td><td><div>datetime.datetime(2014, 1, 6, 23, 9, 16, 477926)</div></td></tr><tr><td style="font-weight:bold;vertical-align:top">uuid</td><td valign="top">:</td><td><div>siriadmin/127.0.0.1.2014-01-06.16-09-16.bb48faf7-1fb6-4440-909d-88a50f49e0c3</div></td></tr><tr><td style="font-weight:bold;vertical-align:top">vars</td><td valign="top">:</td><td><div><table></table></div></td></tr><tr><td style="font-weight:bold;vertical-align:top">wsgi</td><td valign="top">:</td><td><div><table><tr><td style="font-weight:bold;vertical-align:top">environ</td><td valign="top">:</td><td><div><table><tr><td style="font-weight:bold;vertical-align:top">HTTP_ACCEPT</td><td valign="top">:</td><td><div>*/*</div></td></tr><tr><td style="font-weight:bold;vertical-align:top">HTTP_ACCEPT_ENCODING</td><td valign="top">:</td><td><div>gzip, deflate</div></td></tr><tr><td style="font-weight:bold;vertical-align:top">HTTP_ACCEPT_LANGUAGE</td><td valign="top">:</td><td><div>en-US,en;q=0.5</div></td></tr><tr><td style="font-weight:bold;vertical-align:top">HTTP_CACHE_CONTROL</td><td valign="top">:</td><td><div>max-age=0</div></td></tr><tr><td style="font-weight:bold;vertical-align:top">HTTP_CONNECTION</td><td valign="top">:</td><td><div>keep-alive</div></td></tr><tr><td style="font-weight:bold;vertical-align:top">HTTP_COOKIE</td><td valign="top">:</td><td><div>session_id_welcome=127.0.0.1-99bb6ee0-0784-458b-9aa9-1f0712b27d48; session_id_admin=127.0.0.1-ebe5ca4f-6391-4175-8c8b-d9562a433670; session_id_siriadmin=127.0.0.1-035af0be-6b4f-4ced-83c8-beb0fbc5c152</div></td></tr><tr><td style="font-weight:bold;vertical-align:top">HTTP_DNT</td><td valign="top">:</td><td><div>1</div></td></tr><tr><td style="font-weight:bold;vertical-align:top">HTTP_HOST</td><td valign="top">:</td><td><div>127.0.0.1:8000</div></td></tr><tr><td style="font-weight:bold;vertical-align:top">HTTP_REFERER</td><td valign="top">:</td><td><div>http://127.0.0.1:8000/siriadmin/timeclock/employeedash</div></td></tr><tr><td style="font-weight:bold;vertical-align:top">HTTP_USER_AGENT</td><td valign="top">:</td><td><div>Mozilla/5.0 (Macintosh; Intel Mac OS X 10.9; rv:26.0) Gecko/20100101 Firefox/26.0</div></td></tr><tr><td style="font-weight:bold;vertical-align:top">HTTP_WEB2PY_COMPONENT_ELEMENT</td><td valign="top">:</td><td><div>c0205565710272</div></td></tr><tr><td style="font-weight:bold;vertical-align:top">HTTP_WEB2PY_COMPONENT_LOCATION</td><td valign="top">:</td><td><div>http://127.0.0.1:8000/siriadmin/timeclock/employeedash</div></td></tr><tr><td style="font-weight:bold;vertical-align:top">HTTP_X_REQUESTED_WITH</td><td valign="top">:</td><td><div>XMLHttpRequest</div></td></tr><tr><td style="font-weight:bold;vertical-align:top">PATH_INFO</td><td valign="top">:</td><td><div>/siriadmin/mentorTrack/personal.load</div></td></tr><tr><td style="font-weight:bold;vertical-align:top">QUERY_STRING</td><td valign="top">:</td><td><div>_signature=1b1b535dbb8f14e63883a9ed2610e314d49ba9c8</div></td></tr><tr><td style="font-weight:bold;vertical-align:top">REMOTE_ADDR</td><td valign="top">:</td><td><div>127.0.0.1</div></td></tr><tr><td style="font-weight:bold;vertical-align:top">REMOTE_PORT</td><td valign="top">:</td><td><div>54399</div></td></tr><tr><td style="font-weight:bold;vertical-align:top">REQUEST_METHOD</td><td valign="top">:</td><td><div>GET</div></td></tr><tr><td style="font-weight:bold;vertical-align:top">REQUEST_URI</td><td valign="top">:</td><td><div>/siriadmin/mentorTrack/personal.load?_signature=1b1b535dbb8f14e63883a9ed2610e314d49ba9c8</div></td></tr><tr><td style="font-weight:bold;vertical-align:top">SCRIPT_NAME</td><td valign="top">:</td><td><div></div></td></tr><tr><td style="font-weight:bold;vertical-align:top">SERVER_NAME</td><td valign="top">:</td><td><div>Aphro.local</div></td></tr><tr><td style="font-weight:bold;vertical-align:top">SERVER_PORT</td><td valign="top">:</td><td><div>8000</div></td></tr><tr><td style="font-weight:bold;vertical-align:top">SERVER_PROTOCOL</td><td valign="top">:</td><td><div>HTTP/1.1</div></td></tr><tr><td style="font-weight:bold;vertical-align:top">SERVER_SOFTWARE</td><td valign="top">:</td><td><div>Rocket 1.2.6</div></td></tr><tr><td style="font-weight:bold;vertical-align:top">wsgi.errors</td><td valign="top">:</td><td><div>&lt;open file &#x27;&lt;stderr&gt;&#x27;, mode &#x27;w&#x27; at 0x10f6fa1e0&gt;</div></td></tr><tr><td style="font-weight:bold;vertical-align:top">wsgi.file_wrapper</td><td valign="top">:</td><td><div>&lt;class wsgiref.util.FileWrapper at 0x1104a9390&gt;</div></td></tr><tr><td style="font-weight:bold;vertical-align:top">wsgi.input</td><td valign="top">:</td><td><div>&lt;cStringIO.StringO object at 0x1143c00d8&gt;</div></td></tr><tr><td style="font-weight:bold;vertical-align:top">wsgi.multiprocess</td><td valign="top">:</td><td><div>False</div></td></tr><tr><td style="font-weight:bold;vertical-align:top">wsgi.multithread</td><td valign="top">:</td><td><div>True</div></td></tr><tr><td style="font-weight:bold;vertical-align:top">wsgi.run_once</td><td valign="top">:</td><td><div>False</div></td></tr><tr><td style="font-weight:bold;vertical-align:top">wsgi.url_scheme</td><td valign="top">:</td><td><div>http</div></td></tr><tr><td style="font-weight:bold;vertical-align:top">wsgi.version</td><td valign="top">:</td><td><div>1</div></td></tr></table></div></td></tr></table></div></td></tr></table></div>'
tRp62
sS'frames'
p63
(lp64
(dp65
S'file'
p66
S'/Users/adin/Work/SIRI/TimeClock/siri/gluon/restricted.py'
p67
sS'dump'
p68
(dp69
S'environment'
p70
S"{'A': <class 'gluon.html.A'>, 'ANY_OF': <class 'gluon.validators.ANY_OF'>, 'Auth': <class 'gluon.tools.Auth'>, 'B': <class 'gluon.html.B'>, 'BEAUTIFY': <class 'gluon.html.BEAUTIFY'>, 'BODY': <class 'gluon.html.BODY'>, 'BR': <class 'gluon.html.BR'>, 'BUTTON': <class 'gluon.html.BUTTON'>, 'CAT': <class 'gluon.html.CAT'>, 'CENTER': <class 'gluon.html.CENTER'>, ...}"
p71
sS'ccode'
p72
S'<code object <module> at 0x11441edb0, file "/Use...ns/siriadmin/controllers/mentorTrack.py", line 3>'
p73
ssS'lnum'
p74
I212
sS'lines'
p75
(dp76
I207
S'    try:'
p77
sI208
S'        if isinstance(code, types.CodeType):'
p78
sI209
S'            ccode = code'
p79
sI210
S'        else:'
p80
sI211
S'            ccode = compile2(code, layer)'
p81
sI212
S'        exec ccode in environment'
p82
sI213
S'    except HTTP:'
p83
sI214
S'        raise'
p84
sI215
S'    except RestrictedError:'
p85
sI216
S'        # do not encapsulate (obfuscate) the original RestrictedError'
p86
ssS'call'
p87
S"(code='# coding: utf8\\n# try something like\\ndef index():...ls()\\n\\n\\nresponse._vars=response._caller(personal)\\n', environment={'A': <class 'gluon.html.A'>, 'ANY_OF': <class 'gluon.validators.ANY_OF'>, 'Auth': <class 'gluon.tools.Auth'>, 'B': <class 'gluon.html.B'>, 'BEAUTIFY': <class 'gluon.html.BEAUTIFY'>, 'BODY': <class 'gluon.html.BODY'>, 'BR': <class 'gluon.html.BR'>, 'BUTTON': <class 'gluon.html.BUTTON'>, 'CAT': <class 'gluon.html.CAT'>, 'CENTER': <class 'gluon.html.CENTER'>, ...}, layer='/Users/adin/Work/SIRI/TimeClock/siri/applications/siriadmin/controllers/mentorTrack.py')"
p88
sS'func'
p89
S'restricted'
p90
sa(dp91
g66
S'/Users/adin/Work/SIRI/TimeClock/siri/applications/siriadmin/controllers/mentorTrack.py'
p92
sg68
(dp93
sg74
I66
sg75
(dp94
I64
S''
sI55
S'\tif len(project) != 1:'
p95
sI56
S'\t\traise HTTP(404)'
p96
sI57
S'\tproject = project[0].project_name'
p97
sI58
S'\tmilemark = db(db.mentorTrack_projects.project_name == project)'
p98
sI59
S'\tdataTable = db((db.mentorTrack_mentees.user_id == session.auth.user.id)&\t# our users data'
p99
sI60
S'\t\t(db.mentorTrack_mentees.project_name == db.siri_projects.id)&\t\t\t# get project name'
p100
sI61
S'\t\t(db.mentorTrack_projects.project_name == db.mentorTrack_mentees.project_name)& # get the milestones for that project'
p101
sI62
S'\t\t()).select()'
p102
sI63
S'\treturn locals()'
p103
ssg87
S'()'
p104
sg89
S'<module>'
p105
sa(dp106
g66
S'/Users/adin/Work/SIRI/TimeClock/siri/gluon/globals.py'
p107
sg68
(dp108
S'self'
p109
S'undefined'
p110
sS'f'
S'<function personal>'
p111
ssg74
I194
sg75
(dp112
I192
S"        self.delimiters = ('{{', '}}')"
p113
sI193
S'        self._vars = None'
p114
sI194
S'        self._caller = lambda f: f()'
p115
sI195
S'        self._view_environment = None'
p116
sI196
S'        self._custom_commit = None'
p117
sI197
S'        self._custom_rollback = None'
p118
sI198
S''
sI189
S'        self.menu = []             # used by the default view layout'
p119
sI190
S'        self.files = []            # used by web2py_ajax.html'
p120
sI191
S'        self.generic_patterns = []  # patterns to allow generic views'
p121
ssg87
S'(f=<function personal>)'
p122
sg89
S'<lambda>'
p123
sa(dp124
g66
S'/Users/adin/Work/SIRI/TimeClock/siri/applications/siriadmin/controllers/mentorTrack.py'
p125
sg68
(dp126
sg74
I62
sg75
(dp127
I64
S''
sI55
S'\tif len(project) != 1:'
p128
sI56
S'\t\traise HTTP(404)'
p129
sI57
S'\tproject = project[0].project_name'
p130
sI58
S'\tmilemark = db(db.mentorTrack_projects.project_name == project)'
p131
sI59
S'\tdataTable = db((db.mentorTrack_mentees.user_id == session.auth.user.id)&\t# our users data'
p132
sI60
S'\t\t(db.mentorTrack_mentees.project_name == db.siri_projects.id)&\t\t\t# get project name'
p133
sI61
S'\t\t(db.mentorTrack_projects.project_name == db.mentorTrack_mentees.project_name)& # get the milestones for that project'
p134
sI62
S'\t\t()).select()'
p135
sI63
S'\treturn locals()'
p136
ssg87
S'()'
p137
sg89
S'personal'
p138
sa(dp139
g66
S'/Users/adin/Work/SIRI/TimeClock/siri/gluon/dal.py'
p140
sg68
(dp141
S'self.query'
p142
S'<Query ((((mentorTrack_mentees.user_id = 5) AND ..._name = mentorTrack_mentees.project_name)) AND )>'
p143
sS'adapter.select'
p144
S'<bound method SQLiteAdapter.select of <gluon.dal.SQLiteAdapter object>>'
p145
sS'fields'
p146
S'[<gluon.dal.Field object>, <gluon.dal.Field object>, <gluon.dal.Field object>, <gluon.dal.Field object>, <gluon.dal.Field object>, <gluon.dal.Field object>, <gluon.dal.Field object>, <gluon.dal.Field object>, <gluon.dal.Field object>, <gluon.dal.Field object>, <gluon.dal.Field object>, <gluon.dal.Field object>, <gluon.dal.Field object>, <gluon.dal.Field object>, <gluon.dal.Field object>, <gluon.dal.Field object>, <gluon.dal.Field object>, <gluon.dal.Field object>, <gluon.dal.Field object>, <gluon.dal.Field object>]'
p147
sS'adapter'
p148
S'<gluon.dal.SQLiteAdapter object>'
p149
sS'attributes'
p150
g21
sS'self'
p151
S'<Set ((((mentorTrack_mentees.user_id = 5) AND (m..._name = mentorTrack_mentees.project_name)) AND )>'
p152
ssg74
I9958
sg75
(dp153
I9953
S"                                    attributes.get('join',None),"
p154
sI9954
S"                                    attributes.get('left',None),"
p155
sI9955
S"                                    attributes.get('orderby',None),"
p156
sI9956
S"                                    attributes.get('groupby',None))"
p157
sI9957
S'        fields = adapter.expand_all(fields, tablenames)'
p158
sI9958
S'        return adapter.select(self.query,fields,attributes)'
p159
sI9959
S''
sI9960
S'    def nested_select(self,*fields,**attributes):'
p160
sI9961
S'        return Expression(self.db,self._select(*fields,**attributes))'
p161
sI9962
S''
ssg87
S'(self=<Set ((((mentorTrack_mentees.user_id = 5) AND (m..._name = mentorTrack_mentees.project_name)) AND )>, *fields=[<gluon.dal.Field object>, <gluon.dal.Field object>, <gluon.dal.Field object>, <gluon.dal.Field object>, <gluon.dal.Field object>, <gluon.dal.Field object>, <gluon.dal.Field object>, <gluon.dal.Field object>, <gluon.dal.Field object>, <gluon.dal.Field object>, <gluon.dal.Field object>, <gluon.dal.Field object>, <gluon.dal.Field object>, <gluon.dal.Field object>, <gluon.dal.Field object>, <gluon.dal.Field object>, <gluon.dal.Field object>, <gluon.dal.Field object>, <gluon.dal.Field object>, <gluon.dal.Field object>], **attributes={})'
p162
sg89
S'select'
p163
sa(dp164
g66
S'/Users/adin/Work/SIRI/TimeClock/siri/gluon/dal.py'
p165
sg68
(dp166
S'fields'
p167
S'[<gluon.dal.Field object>, <gluon.dal.Field object>, <gluon.dal.Field object>, <gluon.dal.Field object>, <gluon.dal.Field object>, <gluon.dal.Field object>, <gluon.dal.Field object>, <gluon.dal.Field object>, <gluon.dal.Field object>, <gluon.dal.Field object>, <gluon.dal.Field object>, <gluon.dal.Field object>, <gluon.dal.Field object>, <gluon.dal.Field object>, <gluon.dal.Field object>, <gluon.dal.Field object>, <gluon.dal.Field object>, <gluon.dal.Field object>, <gluon.dal.Field object>, <gluon.dal.Field object>]'
p168
sS'self'
p169
S'<gluon.dal.SQLiteAdapter object>'
p170
sS').select'
p171
S'<bound method SQLiteAdapter.select of <gluon.dal.SQLiteAdapter object>>'
p172
sS'attributes'
p173
g21
sS'global SQLiteAdapter'
p174
S"<class 'gluon.dal.SQLiteAdapter'>"
p175
sS'query'
p176
S'<Query ((((mentorTrack_mentees.user_id = 5) AND ..._name = mentorTrack_mentees.project_name)) AND )>'
p177
sS'builtinsuper'
p178
S"<type 'super'>"
p179
ssg74
I2245
sg75
(dp180
I2240
S'        Note that the entire database, rather than one record, is locked'
p181
sI2241
S'        (it will be locked eventually anyway by the following UPDATE).'
p182
sI2242
S'        """'
p183
sI2243
S"        if attributes.get('for_update', False) and not 'cache' in attributes:"
p184
sI2244
S"            self.execute('BEGIN IMMEDIATE TRANSACTION;')"
p185
sI2245
S'        return super(SQLiteAdapter, self).select(query, fields, attributes)'
p186
sI2246
S''
sI2247
S'class SpatiaLiteAdapter(SQLiteAdapter):'
p187
sI2248
S"    drivers = ('sqlite3','sqlite2')"
p188
sI2249
S''
ssg87
S'(self=<gluon.dal.SQLiteAdapter object>, query=<Query ((((mentorTrack_mentees.user_id = 5) AND ..._name = mentorTrack_mentees.project_name)) AND )>, fields=[<gluon.dal.Field object>, <gluon.dal.Field object>, <gluon.dal.Field object>, <gluon.dal.Field object>, <gluon.dal.Field object>, <gluon.dal.Field object>, <gluon.dal.Field object>, <gluon.dal.Field object>, <gluon.dal.Field object>, <gluon.dal.Field object>, <gluon.dal.Field object>, <gluon.dal.Field object>, <gluon.dal.Field object>, <gluon.dal.Field object>, <gluon.dal.Field object>, <gluon.dal.Field object>, <gluon.dal.Field object>, <gluon.dal.Field object>, <gluon.dal.Field object>, <gluon.dal.Field object>], attributes={})'
p189
sg89
g163
sa(dp190
g66
S'/Users/adin/Work/SIRI/TimeClock/siri/gluon/dal.py'
p191
sg68
(dp192
S'fields'
p193
S'[<gluon.dal.Field object>, <gluon.dal.Field object>, <gluon.dal.Field object>, <gluon.dal.Field object>, <gluon.dal.Field object>, <gluon.dal.Field object>, <gluon.dal.Field object>, <gluon.dal.Field object>, <gluon.dal.Field object>, <gluon.dal.Field object>, <gluon.dal.Field object>, <gluon.dal.Field object>, <gluon.dal.Field object>, <gluon.dal.Field object>, <gluon.dal.Field object>, <gluon.dal.Field object>, <gluon.dal.Field object>, <gluon.dal.Field object>, <gluon.dal.Field object>, <gluon.dal.Field object>]'
p194
sS'self'
p195
S'<gluon.dal.SQLiteAdapter object>'
p196
sS'attributes'
p197
g21
sS'self._select_aux'
p198
S'<bound method SQLiteAdapter._select_aux of <gluon.dal.SQLiteAdapter object>>'
p199
sS'sql'
p200
S"'SELECT  siri_projects.id, siri_projects.name, si..._name = mentorTrack_mentees.project_name)) AND );'"
p201
ssg74
I1704
sg75
(dp202
I1699
S'            return cache_model('
p203
sI1700
S'                key,'
p204
sI1701
S'                lambda self=self,args=args:self._select_aux(*args),'
p205
sI1702
S'                time_expire)'
p206
sI1703
S'        else:'
p207
sI1704
S'            return self._select_aux(sql,fields,attributes)'
p208
sI1705
S''
sI1706
S'    def _count(self, query, distinct=None):'
p209
sI1707
S'        tablenames = self.tables(query)'
p210
sI1708
S'        if query:'
p211
ssg87
S'(self=<gluon.dal.SQLiteAdapter object>, query=<Query ((((mentorTrack_mentees.user_id = 5) AND ..._name = mentorTrack_mentees.project_name)) AND )>, fields=[<gluon.dal.Field object>, <gluon.dal.Field object>, <gluon.dal.Field object>, <gluon.dal.Field object>, <gluon.dal.Field object>, <gluon.dal.Field object>, <gluon.dal.Field object>, <gluon.dal.Field object>, <gluon.dal.Field object>, <gluon.dal.Field object>, <gluon.dal.Field object>, <gluon.dal.Field object>, <gluon.dal.Field object>, <gluon.dal.Field object>, <gluon.dal.Field object>, <gluon.dal.Field object>, <gluon.dal.Field object>, <gluon.dal.Field object>, <gluon.dal.Field object>, <gluon.dal.Field object>], attributes={})'
p212
sg89
g163
sa(dp213
g66
S'/Users/adin/Work/SIRI/TimeClock/siri/gluon/dal.py'
p214
sg68
(dp215
S'self'
p216
S'<gluon.dal.SQLiteAdapter object>'
p217
sS'self.execute'
p218
S'<bound method SQLiteAdapter.execute of <gluon.dal.SQLiteAdapter object>>'
p219
sS'sql'
p220
S"'SELECT  siri_projects.id, siri_projects.name, si..._name = mentorTrack_mentees.project_name)) AND );'"
p221
ssg74
I1669
sg75
(dp222
I1664
S''
sI1665
S'    def _select_aux(self,sql,fields,attributes):'
p223
sI1666
S'        args_get = attributes.get'
p224
sI1667
S"        cache = args_get('cache',None)"
p225
sI1668
S'        if not cache:'
p226
sI1669
S'            self.execute(sql)'
p227
sI1670
S'            rows = self._fetchall()'
p228
sI1671
S'        else:'
p229
sI1672
S'            (cache_model, time_expire) = cache'
p230
sI1673
S"            key = self.uri + '/' + sql + '/rows'"
p231
ssg87
S"(self=<gluon.dal.SQLiteAdapter object>, sql='SELECT  siri_projects.id, siri_projects.name, si..._name = mentorTrack_mentees.project_name)) AND );', fields=[<gluon.dal.Field object>, <gluon.dal.Field object>, <gluon.dal.Field object>, <gluon.dal.Field object>, <gluon.dal.Field object>, <gluon.dal.Field object>, <gluon.dal.Field object>, <gluon.dal.Field object>, <gluon.dal.Field object>, <gluon.dal.Field object>, <gluon.dal.Field object>, <gluon.dal.Field object>, <gluon.dal.Field object>, <gluon.dal.Field object>, <gluon.dal.Field object>, <gluon.dal.Field object>, <gluon.dal.Field object>, <gluon.dal.Field object>, <gluon.dal.Field object>, <gluon.dal.Field object>], attributes={})"
p232
sg89
S'_select_aux'
p233
sa(dp234
g66
S'/Users/adin/Work/SIRI/TimeClock/siri/gluon/dal.py'
p235
sg68
(dp236
S'a'
S"('SELECT  siri_projects.id, siri_projects.name, si..._name = mentorTrack_mentees.project_name)) AND );',)"
p237
sS'self'
p238
S'<gluon.dal.SQLiteAdapter object>'
p239
sS'b'
g21
sS'self.log_execute'
p240
S'<bound method SQLiteAdapter.log_execute of <gluon.dal.SQLiteAdapter object>>'
p241
ssg74
I1784
sg75
(dp242
I1779
S'        self.db._timings.append((command,time.time()-t0))'
p243
sI1780
S'        del self.db._timings[:-TIMINGSSIZE]'
p244
sI1781
S'        return ret'
p245
sI1782
S''
sI1783
S'    def execute(self, *a, **b):'
p246
sI1784
S'        return self.log_execute(*a, **b)'
p247
sI1785
S''
sI1786
S'    def represent(self, obj, fieldtype):'
p248
sI1787
S'        field_is_type = fieldtype.startswith'
p249
sI1788
S'        if isinstance(obj, CALLABLETYPES):'
p250
ssg87
S"(self=<gluon.dal.SQLiteAdapter object>, *a=('SELECT  siri_projects.id, siri_projects.name, si..._name = mentorTrack_mentees.project_name)) AND );',), **b={})"
p251
sg89
S'execute'
p252
sa(dp253
g66
S'/Users/adin/Work/SIRI/TimeClock/siri/gluon/dal.py'
p254
sg68
(dp255
S'a'
S"('SELECT  siri_projects.id, siri_projects.name, si..._name = mentorTrack_mentees.project_name)) AND );',)"
p256
sS'b'
g21
sS'self'
p257
S'<gluon.dal.SQLiteAdapter object>'
p258
sS'ret'
p259
g110
sS'self.cursor'
p260
S'<sqlite3.Cursor object>'
p261
sS'command'
p262
S"'SELECT  siri_projects.id, siri_projects.name, si..._name = mentorTrack_mentees.project_name)) AND );'"
p263
sS'self.cursor.execute'
p264
S'<built-in method execute of sqlite3.Cursor object>'
p265
ssg74
I1778
sg75
(dp266
I1773
S'            command = self.filter_sql_command(command)'
p267
sI1774
S'        if self.db._debug:'
p268
sI1775
S"            LOGGER.debug('SQL: %s' % command)"
p269
sI1776
S'        self.db._lastsql = command'
p270
sI1777
S'        t0 = time.time()'
p271
sI1778
S'        ret = self.cursor.execute(command, *a[1:], **b)'
p272
sI1779
S'        self.db._timings.append((command,time.time()-t0))'
p273
sI1780
S'        del self.db._timings[:-TIMINGSSIZE]'
p274
sI1781
S'        return ret'
p275
sI1782
S''
ssg87
S"(self=<gluon.dal.SQLiteAdapter object>, *a=('SELECT  siri_projects.id, siri_projects.name, si..._name = mentorTrack_mentees.project_name)) AND );',), **b={})"
p276
sg89
S'log_execute'
p277
sasS'pyver'
p278
S'Python 2.7.5: /usr/bin/python (prefix: /System/Library/Frameworks/Python.framework/Versions/2.7)'
p279
sS'session'
p280
g61
(S's\xa7\t\x00\x00<div><table><tr><td style="font-weight:bold;vertical-align:top">auth</td><td valign="top">:</td><td><div><table><tr><td style="font-weight:bold;vertical-align:top">expiration</td><td valign="top">:</td><td><div>3600</div></td></tr><tr><td style="font-weight:bold;vertical-align:top">hmac_key</td><td valign="top">:</td><td><div>ee95cedb-9b2c-4709-9a49-701becada381</div></td></tr><tr><td style="font-weight:bold;vertical-align:top">last_visit</td><td valign="top">:</td><td><div>datetime.datetime(2014, 1, 6, 16, 6, 12, 725849)</div></td></tr><tr><td style="font-weight:bold;vertical-align:top">remember</td><td valign="top">:</td><td><div>False</div></td></tr><tr><td style="font-weight:bold;vertical-align:top">user</td><td valign="top">:</td><td><div><table><tr><td style="font-weight:bold;vertical-align:top">email</td><td valign="top">:</td><td><div>adinbaum@gmail.com</div></td></tr><tr><td style="font-weight:bold;vertical-align:top">first_name</td><td valign="top">:</td><td><div>Adin</div></td></tr><tr><td style="font-weight:bold;vertical-align:top">id</td><td valign="top">:</td><td><div>5L</div></td></tr><tr><td style="font-weight:bold;vertical-align:top">last_name</td><td valign="top">:</td><td><div>Baumgarten</div></td></tr><tr><td style="font-weight:bold;vertical-align:top">registration_id</td><td valign="top">:</td><td><div></div></td></tr><tr><td style="font-weight:bold;vertical-align:top">registration_key</td><td valign="top">:</td><td><div></div></td></tr><tr><td style="font-weight:bold;vertical-align:top">reset_password_key</td><td valign="top">:</td><td><div></div></td></tr></table></div></td></tr><tr><td style="font-weight:bold;vertical-align:top">user_groups</td><td valign="top">:</td><td><div><table><tr><td style="font-weight:bold;vertical-align:top">2</td><td valign="top">:</td><td><div>Student Employee</div></td></tr></table></div></td></tr></table></div></td></tr><tr><td style="font-weight:bold;vertical-align:top">clockIn</td><td valign="top">:</td><td><div>datetime.datetime(2014, 1, 4, 11, 46, 26, 232556)</div></td></tr><tr><td style="font-weight:bold;vertical-align:top">flash</td><td valign="top">:</td><td><div>None</div></td></tr><tr><td style="font-weight:bold;vertical-align:top">last_orderby</td><td valign="top">:</td><td><div>None</div></td></tr><tr><td style="font-weight:bold;vertical-align:top">last_query</td><td valign="top">:</td><td><div>db.mentorTrack_mentees.project_name == 4</div></td></tr></table></div>'
tRp281
sS'etype'
p282
S"<class 'sqlite3.OperationalError'>"
p283
sS'date'
p284
S'Mon Jan  6 16:09:17 2014'
p285
sS'response'
p286
g61
(S'sB-\x00\x00<div><table><tr><td style="font-weight:bold;vertical-align:top">body</td><td valign="top">:</td><td><div>&lt;cStringIO.StringO object at 0x11412ec00&gt;</div></td></tr><tr><td style="font-weight:bold;vertical-align:top">cookies</td><td valign="top">:</td><td><div><table><tr><td style="font-weight:bold;vertical-align:top">session_id_siriadmin</td><td valign="top">:</td><td><div>127.0.0.1-035af0be-6b4f-4ced-83c8-beb0fbc5c152<table><tr><td style="font-weight:bold;vertical-align:top">comment</td><td valign="top">:</td><td><div></div></td></tr><tr><td style="font-weight:bold;vertical-align:top">domain</td><td valign="top">:</td><td><div></div></td></tr><tr><td style="font-weight:bold;vertical-align:top">expires</td><td valign="top">:</td><td><div></div></td></tr><tr><td style="font-weight:bold;vertical-align:top">httponly</td><td valign="top">:</td><td><div></div></td></tr><tr><td style="font-weight:bold;vertical-align:top">max-age</td><td valign="top">:</td><td><div></div></td></tr><tr><td style="font-weight:bold;vertical-align:top">path</td><td valign="top">:</td><td><div>/</div></td></tr><tr><td style="font-weight:bold;vertical-align:top">secure</td><td valign="top">:</td><td><div></div></td></tr><tr><td style="font-weight:bold;vertical-align:top">version</td><td valign="top">:</td><td><div></div></td></tr></table></div></td></tr></table></div></td></tr><tr><td style="font-weight:bold;vertical-align:top">delimiters</td><td valign="top">:</td><td><div><table><tr><td><div>{{</div></td></tr><tr><td><div>}}</div></td></tr></table></div></td></tr><tr><td style="font-weight:bold;vertical-align:top">files</td><td valign="top">:</td><td><div><table></table></div></td></tr><tr><td style="font-weight:bold;vertical-align:top">flash</td><td valign="top">:</td><td><div></div></td></tr><tr><td style="font-weight:bold;vertical-align:top">generic_patterns</td><td valign="top">:</td><td><div><table><tr><td><div>*</div></td></tr></table></div></td></tr><tr><td style="font-weight:bold;vertical-align:top">google_analytics_id</td><td valign="top">:</td><td><div>None</div></td></tr><tr><td style="font-weight:bold;vertical-align:top">headers</td><td valign="top">:</td><td><div><table><tr><td style="font-weight:bold;vertical-align:top">X-Powered-By</td><td valign="top">:</td><td><div>web2py</div></td></tr></table></div></td></tr><tr><td style="font-weight:bold;vertical-align:top">logo</td><td valign="top">:</td><td><div><a class="brand" href="/siriadmin/default/clockadmin.load"><b>SIRI</b>&trade;&nbsp;</a></div></td></tr><tr><td style="font-weight:bold;vertical-align:top">menu</td><td valign="top">:</td><td><div><table><tr><td><div><table><tr><td><div>Home</div></td></tr><tr><td><div>False</div></td></tr><tr><td><div>/siriadmin/default/index.load</div></td></tr><tr><td><div><table></table></div></td></tr></table></div></td></tr><tr><td><div><table><tr><td><div><span class="highlighted">web2py</span></div></td></tr><tr><td><div>False</div></td></tr><tr><td><div>http://web2py.com</div></td></tr><tr><td><div><table><tr><td><div><table><tr><td><div>My Sites</div></td></tr><tr><td><div>False</div></td></tr><tr><td><div>/admin/default/site.load</div></td></tr></table></div></td></tr><tr><td><div><table><tr><td><div>This App</div></td></tr><tr><td><div>False</div></td></tr><tr><td><div>/admin/default/design.load/siriadmin</div></td></tr><tr><td><div>[(&lt;lazyT &#x27;Controller&#x27;&gt;, False, &#x27;/admin/default/edit.load/siriadmin/controllers/mentorTrack.py&#x27;), (&lt;lazyT &#x27;View&#x27;&gt;, False, &#x27;/admin/default/edit.load/siriadmin/views/mentorTrack/personal.load&#x27;), (&lt;lazyT &#x27;Layout&#x27;&gt;, False, &#x27;/admin/default/edit.load/siriadmin/views/layout.html&#x27;), (&lt;lazyT &#x27;Stylesheet&#x27;&gt;, False, &#x27;/admin/default/edit.load/siriadmin/static/css/web2py.css&#x27;), (&lt;lazyT &#x27;DB Model&#x27;&gt;, False, &#x27;/admin/default/edit.load/siriadmin/models/db.py&#x27;), (&lt;lazyT &#x27;Menu Model&#x27;&gt;, False, &#x27;/admin/default/edit.load/siriadmin/models/menu.py&#x27;), (&lt;lazyT &#x27;Database&#x27;&gt;, False, &#x27;/siriadmin/appadmin/index.load&#x27;), (&lt;lazyT &#x27;Errors&#x27;&gt;, False, &#x27;/admin/default/errors.load/siriadmin&#x27;), (&lt;lazyT &#x27;About&#x27;&gt;, False, &#x27;/admin/default/about.load/siriadmin&#x27;)]</div></td></tr></table></div></td></tr><tr><td><div><table><tr><td><div>web2py.com</div></td></tr><tr><td><div>False</div></td></tr><tr><td><div>http://www.web2py.com</div></td></tr><tr><td><div>[(&lt;lazyT &#x27;Download&#x27;&gt;, False, &#x27;http://www.web2py.com/examples/default/download&#x27;), (&lt;lazyT &#x27;Support&#x27;&gt;, False, &#x27;http://www.web2py.com/examples/default/support&#x27;), (&lt;lazyT &#x27;Demo&#x27;&gt;, False, &#x27;http://web2py.com/demo_admin&#x27;), (&lt;lazyT &#x27;Quick Examples&#x27;&gt;, False, &#x27;http://web2py.com/examples/default/examples&#x27;), (&lt;lazyT &#x27;FAQ&#x27;&gt;, False, &#x27;http://web2py.com/AlterEgo&#x27;), (&lt;lazyT &#x27;Videos&#x27;&gt;, False, &#x27;http://www.web2py.com/examples/default/videos/&#x27;), (&lt;lazyT &#x27;Free Applications&#x27;&gt;, False, &#x27;http://web2py.com/appliances&#x27;), (&lt;lazyT &#x27;Plugins&#x27;&gt;, False, &#x27;http://web2py.com/plugins&#x27;), (&lt;lazyT &#x27;Layouts&#x27;&gt;, False, &#x27;http://web2py.com/layouts&#x27;), (&lt;lazyT &#x27;Recipes&#x27;&gt;, False, &#x27;http://web2pyslices.com/&#x27;), (&lt;lazyT &#x27;Semantic&#x27;&gt;, False, &#x27;http://web2py.com/semantic&#x27;)]</div></td></tr></table></div></td></tr><tr><td><div><table><tr><td><div>Documentation</div></td></tr><tr><td><div>False</div></td></tr><tr><td><div>http://www.web2py.com/book</div></td></tr><tr><td><div>[(&lt;lazyT &#x27;Preface&#x27;&gt;, False, &#x27;http://www.web2py.com/book/default/chapter/00&#x27;), (&lt;lazyT &#x27;Introduction&#x27;&gt;, False, &#x27;http://www.web2py.com/book/default/chapter/01&#x27;), (&lt;lazyT &#x27;Python&#x27;&gt;, False, &#x27;http://www.web2py.com/book/default/chapter/02&#x27;), (&lt;lazyT &#x27;Overview&#x27;&gt;, False, &#x27;http://www.web2py.com/book/default/chapter/03&#x27;), (&lt;lazyT &#x27;The Core&#x27;&gt;, False, &#x27;http://www.web2py.com/book/default/chapter/04&#x27;), (&lt;lazyT &#x27;The Views&#x27;&gt;, False, &#x27;http://www.web2py.com/book/default/chapter/05&#x27;), (&lt;lazyT &#x27;Database&#x27;&gt;, False, &#x27;http://www.web2py.com/book/default/chapter/06&#x27;), (&lt;lazyT &#x27;Forms and Validators&#x27;&gt;, False, &#x27;http://www.web2py.com/book/default/chapter/07&#x27;), (&lt;lazyT &#x27;Email and SMS&#x27;&gt;, False, &#x27;http://www.web2py.com/book/default/chapter/08&#x27;), (&lt;lazyT &#x27;Access Control&#x27;&gt;, False, &#x27;http://www.web2py.com/book/default/chapter/09&#x27;), (&lt;lazyT &#x27;Services&#x27;&gt;, False, &#x27;http://www.web2py.com/book/default/chapter/10&#x27;), (&lt;lazyT &#x27;Ajax Recipes&#x27;&gt;, False, &#x27;http://www.web2py.com/book/default/chapter/11&#x27;), (&lt;lazyT &#x27;Components and Plugins&#x27;&gt;, False, &#x27;http://www.web2py.com/book/default/chapter/12&#x27;), (&lt;lazyT &#x27;Deployment Recipes&#x27;&gt;, False, &#x27;http://www.web2py.com/book/default/chapter/13&#x27;), (&lt;lazyT &#x27;Other Recipes&#x27;&gt;, False, &#x27;http://www.web2py.com/book/default/chapter/14&#x27;), (&lt;lazyT &#x27;Buy this book&#x27;&gt;, False, &#x27;http://stores.lulu.com/web2py&#x27;)]</div></td></tr></table></div></td></tr><tr><td><div><table><tr><td><div>Community</div></td></tr><tr><td><div>False</div></td></tr><tr><td><div>None</div></td></tr><tr><td><div>[(&lt;lazyT &#x27;Groups&#x27;&gt;, False, &#x27;http://www.web2py.com/examples/default/usergroups&#x27;), (&lt;lazyT &#x27;Twitter&#x27;&gt;, False, &#x27;http://twitter.com/web2py&#x27;), (&lt;lazyT &#x27;Live Chat&#x27;&gt;, False, &#x27;http://webchat.freenode.net/?channels=web2py&#x27;)]</div></td></tr></table></div></td></tr><tr><td><div><table><tr><td><div>Plugins</div></td></tr><tr><td><div>False</div></td></tr><tr><td><div>None</div></td></tr><tr><td><div>[(&#x27;plugin_wiki&#x27;, False, &#x27;http://web2py.com/examples/default/download&#x27;), (&lt;lazyT &#x27;Other Plugins&#x27;&gt;, False, &#x27;http://web2py.com/plugins&#x27;), (&lt;lazyT &#x27;Layout Plugins&#x27;&gt;, False, &#x27;http://web2py.com/layouts&#x27;)]</div></td></tr></table></div></td></tr></table></div></td></tr></table></div></td></tr></table></div></td></tr><tr><td style="font-weight:bold;vertical-align:top">meta</td><td valign="top">:</td><td><div><table><tr><td style="font-weight:bold;vertical-align:top">author</td><td valign="top">:</td><td><div>Evan Caldwell &lt;evancaldwell@yahoo.com&gt;</div></td></tr><tr><td style="font-weight:bold;vertical-align:top">description</td><td valign="top">:</td><td><div>A time clock for SIRI employees</div></td></tr><tr><td style="font-weight:bold;vertical-align:top">generator</td><td valign="top">:</td><td><div>Web2py Web Framework</div></td></tr><tr><td style="font-weight:bold;vertical-align:top">keywords</td><td valign="top">:</td><td><div>SIRI, time, clock</div></td></tr></table></div></td></tr><tr><td style="font-weight:bold;vertical-align:top">models_to_run</td><td valign="top">:</td><td><div><table><tr><td><div>^\\w+\\.py$</div></td></tr><tr><td><div>^mentorTrack/\\w+\\.py$</div></td></tr><tr><td><div>^mentorTrack/personal/\\w+\\.py$</div></td></tr></table></div></td></tr><tr><td style="font-weight:bold;vertical-align:top">postprocessing</td><td valign="top">:</td><td><div><table></table></div></td></tr><tr><td style="font-weight:bold;vertical-align:top">session_cookie_expires</td><td valign="top">:</td><td><div>None</div></td></tr><tr><td style="font-weight:bold;vertical-align:top">session_data_name</td><td valign="top">:</td><td><div>session_data_siriadmin</div></td></tr><tr><td style="font-weight:bold;vertical-align:top">session_file</td><td valign="top">:</td><td><div>&lt;open file &#x27;/Users/adin/Work/SIRI/TimeClock/siri/applications/siriadmin/sessions/127.0.0.1-035af0be-6b4f-4ced-83c8-beb0fbc5c152&#x27;, mode &#x27;rb+&#x27; at 0x114539d20&gt;</div></td></tr><tr><td style="font-weight:bold;vertical-align:top">session_filename</td><td valign="top">:</td><td><div>/Users/adin/Work/SIRI/TimeClock/siri/applications/siriadmin/sessions/127.0.0.1-035af0be-6b4f-4ced-83c8-beb0fbc5c152</div></td></tr><tr><td style="font-weight:bold;vertical-align:top">session_id</td><td valign="top">:</td><td><div>127.0.0.1-035af0be-6b4f-4ced-83c8-beb0fbc5c152</div></td></tr><tr><td style="font-weight:bold;vertical-align:top">session_id_name</td><td valign="top">:</td><td><div>session_id_siriadmin</div></td></tr><tr><td style="font-weight:bold;vertical-align:top">session_locked</td><td valign="top">:</td><td><div>True</div></td></tr><tr><td style="font-weight:bold;vertical-align:top">session_new</td><td valign="top">:</td><td><div>False</div></td></tr><tr><td style="font-weight:bold;vertical-align:top">session_storage_type</td><td valign="top">:</td><td><div>file</div></td></tr><tr><td style="font-weight:bold;vertical-align:top">status</td><td valign="top">:</td><td><div>200</div></td></tr><tr><td style="font-weight:bold;vertical-align:top">subtitle</td><td valign="top">:</td><td><div>customize me!</div></td></tr><tr><td style="font-weight:bold;vertical-align:top">title</td><td valign="top">:</td><td><div>SIRI Admin</div></td></tr><tr><td style="font-weight:bold;vertical-align:top">view</td><td valign="top">:</td><td><div>mentorTrack/personal.load</div></td></tr></table></div>'
tRp287
sS'locals'
p288
(dp289
S'a'
S"('SELECT  siri_projects.id, siri_projects.name, si..._name = mentorTrack_mentees.project_name)) AND );',)"
p290
sS'self'
p291
S'<gluon.dal.SQLiteAdapter object>'
p292
sS'b'
g21
sS'command'
p293
S"'SELECT  siri_projects.id, siri_projects.name, si..._name = mentorTrack_mentees.project_name)) AND );'"
p294
sS't0'
p295
S'1389049757.989919'
p296
sssS'traceback'
p297
S'Traceback (most recent call last):\n  File "/Users/adin/Work/SIRI/TimeClock/siri/gluon/restricted.py", line 212, in restricted\n    exec ccode in environment\n  File "/Users/adin/Work/SIRI/TimeClock/siri/applications/siriadmin/controllers/mentorTrack.py", line 66, in <module>\n  File "/Users/adin/Work/SIRI/TimeClock/siri/gluon/globals.py", line 194, in <lambda>\n    self._caller = lambda f: f()\n  File "/Users/adin/Work/SIRI/TimeClock/siri/applications/siriadmin/controllers/mentorTrack.py", line 62, in personal\n    ()).select()\n  File "/Users/adin/Work/SIRI/TimeClock/siri/gluon/dal.py", line 9958, in select\n    return adapter.select(self.query,fields,attributes)\n  File "/Users/adin/Work/SIRI/TimeClock/siri/gluon/dal.py", line 2245, in select\n    return super(SQLiteAdapter, self).select(query, fields, attributes)\n  File "/Users/adin/Work/SIRI/TimeClock/siri/gluon/dal.py", line 1704, in select\n    return self._select_aux(sql,fields,attributes)\n  File "/Users/adin/Work/SIRI/TimeClock/siri/gluon/dal.py", line 1669, in _select_aux\n    self.execute(sql)\n  File "/Users/adin/Work/SIRI/TimeClock/siri/gluon/dal.py", line 1784, in execute\n    return self.log_execute(*a, **b)\n  File "/Users/adin/Work/SIRI/TimeClock/siri/gluon/dal.py", line 1778, in log_execute\n    ret = self.cursor.execute(command, *a[1:], **b)\nOperationalError: near ")": syntax error\n'
p298
s.