(dp1
S'output'
p2
S"<type 'exceptions.UnboundLocalError'> local variable 'payload_in' referenced before assignment"
p3
sS'layer'
p4
S'/home/SIRI/web2py/applications/siri_admin/controllers/timeclock.py'
p5
sS'code'
p6
S'########## Some Global Variables ##############\r\nPERIOD_START = datetime(2013, 10, 1) # TODO: implement tzinfo to make datetimes aware ############################\r\nPERIOD_END = datetime(2013, 12, 7)\r\nLAST_PERIOD_START = datetime(2013, 11, 10)\r\nLAST_PERIOD_END = datetime(2013, 11, 23)\r\n\r\n# TODO: increment periods ###############################################################################\r\n\r\n@auth.requires_login()\r\ndef employeedash():\r\n    """\r\n    this will become the index page\r\n    """\r\n    fields = [\'project\',\'work_date\',\'time_in\',\'time_out\',\'description\']\r\n    form = SQLFORM(db.timeclock, submit_button=\'Submit Hours\', fields=fields)\r\n    if form.process(onvalidation=calcHours).accepted:\r\n        response.flash = \'Thank you for submitting your time \' + str(form.vars.hours)\r\n    elif form.errors:\r\n        response.flash = \'There was an error on the form\'\r\n    else:\r\n        response.flash = \'Welcome to your dashboard \' + session.auth.user.first_name\r\n    response.title = session.auth.user.first_name + "\'s Dashboard"\r\n    response.subtitle = \'Current pay period is \' + PERIOD_START.strftime("%m/%d/%Y") + \' - \' + PERIOD_END.strftime("%m/%d/%Y")\r\n\r\n    query = (db.timeclock.usr_id == session.auth.user.id)&(db.timeclock.work_date > PERIOD_START)&(db.timeclock.work_date < PERIOD_END)\r\n    clockEntries = db(query).select(db.timeclock.ALL, orderby=~db.timeclock.work_date)\r\n    totalHours = 0\r\n\r\n    return dict(form=form, clockEntries=clockEntries, totalHours=totalHours)\r\n\r\n# @auth.requires_signature()\r\ndef ask():\r\n    form=SQLFORM.factory(\r\n        Field(\'message\', requires=IS_NOT_EMPTY()))\r\n    if form.process().accepted:\r\n        if mail.send(to=\'e.caldwell@sirinstitute.org\',\r\n                  subject=\'from %s\' % session.auth.user.email,\r\n                  message = form.vars.question):\r\n            response.flash = \'Thank you\'\r\n            response.js = "jQuery(\'#%s\').hide()" % request.cid\r\n        else:\r\n            form.errors.your_email = "Unable to send the email"\r\n    return form\r\n\r\n@auth.requires_login()\r\ndef addtime():\r\n    """\r\n    Allows a loggedin user to add an entry for time worked\r\n    """\r\n    form = SQLFORM(db.timeclock)\r\n    if form.process().accepted:\r\n        response.flash = \'Thank you for submitting your time\'\r\n    elif form.errors:\r\n        response.flash = \'There was an error on the form\'\r\n    else:\r\n        response.flash = \'Welcome \' + session.auth.user.first_name + \' your id is: \' + str(session.auth.user.id)\r\n    response.title = \'New Entry\'\r\n    response.subtitle = \'please fill out the form below\'\r\n    hoursTest = type(db.timeclock.time_in)\r\n    return dict(form=form, hoursTest=hoursTest)\r\n\r\n@auth.requires_login()\r\ndef displaytime():\r\n    """\r\n    Shows the entries for the user that is logged in\r\n    TODO: add a \'request change\' link for employees to request a change to an entry ################################\r\n    """\r\n    payPeriods = 0\t\r\n    query = db.timeclock.usr_id == session.auth.user.id\r\n    grid = SQLFORM.grid(query, deletable=False, editable=False, create=False, orderby=~db.timeclock.work_date)\r\n\r\n    return dict(grid=grid)\r\n\r\n@auth.requires_login()\r\ndef processinvoices():\r\n    """\r\n    A view to process and export invoices or various clients\r\n    TODO: make it variable per client and per period via inputs of some type #########################################\r\n          have it call the gspread function\r\n          process a log of some sort\r\n          display a processing icon and confirmation message\r\n    """\r\n    \r\n    form=FORM(\'Invoice Details:\',\r\n              INPUT(_name=\'start\', _class=\'date\', requires=IS_NOT_EMPTY()),\r\n              INPUT(_name=\'end\', _class=\'date\', requires=IS_NOT_EMPTY()),\r\n              INPUT(_name=\'project\', requires=IS_NOT_EMPTY()),\r\n              INPUT(_type=\'submit\'))\r\n\r\n    if form.accepts(request,session):\r\n        response.flash = \'form accepted\'\r\n    elif form.errors:\r\n        response.flash = \'form has errors\'\r\n    else:\r\n        response.flash = \'please fill out the form\'\r\n    # Get the vars from the form to process the invoices\r\n    start = form.vars.start\r\n    end = form.vars.end\r\n    project = form.vars.project\r\n    # Initialize various variables to use in the function\r\n    clockSet = None\r\n    empIdList = []\r\n    empInfo = []\r\n    empList = []\r\n    totalHours = 0\r\n    # Initialize a Google Docs client\r\n    gc = gspread.login(\'dawg3tt@gmail.com\', \'mol090901!\')\r\n    # Check to see if the form has been submitted\r\n    # TODO: tie this to the form submission, maybe using onvalidation ###################################################\r\n    if start is not None:\r\n        response.flash = "Processing Invoices for " + project + ", period: " + start + " - " + end\r\n        # Convert form variables to date objects\r\n        start = datetime.strptime(start, "%m/%d/%Y")\r\n        end = datetime.strptime(end, "%m/%d/%Y")\r\n        # Query and select records from the database that match the form variables\r\n        query = (db.timeclock.work_date >= start) & (db.timeclock.work_date <= end) & (db.timeclock.project == project)\r\n        clockEntries = db(query).select(db.timeclock.ALL, orderby=~db.timeclock.work_date)\r\n        # Get a list of unique employee ids from the time submissions\r\n        for item in clockEntries:\r\n            empIdList.append(item.usr_id)\r\n        empIdList = set(empIdList)\r\n        # Build a list of Employee object instances\r\n        for id in empIdList:\r\n            empInfo = db(db.auth_user.id == id).select().first()\r\n            # Instantiate an Employee object, initialize an empty array for timeclock entries and a variable to hold the total hours\r\n            emp = Employee(id, empInfo.first_name, empInfo.last_name, empInfo.email)\r\n            emp.entries = []\r\n            emp.totalHours = 0\r\n            emp.project = project\r\n            # Add the timeclock entries for this employee to the empty array and calculate the total hours\r\n            for entry in clockEntries:\r\n                if entry.usr_id == id:\r\n                    emp.entries.append(entry)\r\n                    emp.totalHours += entry.hours\r\n            # Add the new Employee object to the Employee object list\r\n            empList.append(emp)\r\n\r\n        # For each id create an invoice and format it\r\n        for employee in empList:\r\n            # call functions to create and format invoices\r\n            # TODO: find a way to create new invoices programmatically ##################################################\r\n            createInvoices(employee, gc, start, end)\r\n            # formatIncoices()\r\n    \r\n        clockEntries = []\r\n        entryRange = []\r\n\r\n\r\n    return dict(form=form, clockEntries=clockEntries, empList=empList, empInfo=empInfo)\r\n\r\ndef createInvoices(employee, gc, start, end):\r\n    """\r\n    A function to create a Google doc with an invoice or each employee\r\n    """\r\n    response.flash = "Creating Invoices"\r\n    ss = gc.open("web2py_tester")\r\n    wks = ss.sheet1\r\n    newks = ss.add_worksheet(title=employee.firstName + " " + employee.lastName, rows="70", cols="5")\r\n    headerRange = newks.range(\'A1:E15\')\r\n    entryRange = newks.range(\'A16:E\' + str(len(employee.entries) + 15))\r\n    for cell in headerRange:\r\n        cell.value = \'\'\r\n    headerRange[0].value = "Invoice"\r\n    headerRange[10].value = "From:"\r\n    headerRange[11].value = employee.firstName + " " + employee.lastName\r\n    headerRange[13].value = "Period"\r\n    headerRange[18].value = "From:"\r\n    headerRange[19].value = "To:"\r\n    headerRange[23].value = start\r\n    headerRange[24].value = end\r\n    headerRange[40].value = "To:"\r\n    headerRange[41].value = "Deseret Digital Media"\r\n    headerRange[44].value = "Hours Total"\r\n    headerRange[46].value = "55 North 300 West Ste 500"\r\n    headerRange[49].value = employee.totalHours\r\n    headerRange[51].value = "Salt Lake City, UT 84101"\r\n    headerRange[54].value = "Total"\r\n    headerRange[56].value = "801-333-7400"\r\n    headerRange[59].value = employee.totalHours * 10\r\n    headerRange[70].value = "Date"\r\n    headerRange[71].value = "Description"\r\n    headerRange[72].value = "Hours"\r\n    headerRange[73].value = "Rate"\r\n    headerRange[74].value = "Subtotal"\r\n\r\n    outputEntries = convertGdOutput(employee.entries)\r\n    i = 0\r\n    for cell in entryRange:\r\n        cell.value = outputEntries[i]\r\n        i += 1\r\n\r\n    newks.update_cells(headerRange)\r\n    newks.update_cells(entryRange)\r\n\r\ndef convertGdOutput(entries):\r\n    # convert a set of time entries from the database to a valid Google Docs format\r\n    outputEntries = []\r\n    for entry in entries:\r\n        outputEntries.extend([entry.work_date, entry.description, entry.hours, 10, float(entry.hours) * 10])\r\n    return outputEntries\r\n\r\n\r\ndef calcHours(form):\r\n    # TODO: make this ok for non 24 hour time, need to add a am/pm or a dropdown ###############################\r\n    timeIn = form.vars.time_in\r\n    timeOut = form.vars.time_out\r\n    timeInHour = int(timeIn[0:2])\r\n    timeInMin = int(timeIn[3:5])\r\n    timeOutHour = int(timeOut[0:2])\r\n    timeOutMin = int(timeOut[3:5])\r\n    if timeIn > timeOut:\r\n        timeOutHour += 12\r\n    hourDiff = timeOutHour - timeInHour\r\n    minDiff = (timeOutMin - timeInMin)/60.0\r\n    form.vars.hours = hourDiff + minDiff # TODO: round this off #################################################\r\n\r\ndef gdatatest():\r\n    """\r\n    testing integration with Google\r\n    """\r\n    gemail = \'dawg3tt@gmail.com\'\r\n    gpwd = \'mol090901!\'\r\n\r\n    ############ get docs list example #################################################\r\n    # Create a client class which will make HTTP requests with Google Docs server.\r\n    gdataClient = gdata.docs.service.DocsService()\r\n    # Authenticate using your Google Docs email address and password.\r\n    gdataClient.email = gemail\r\n    gdataClient.password = gpwd\r\n    gdataClient.source = \'SIRI Admin\'\r\n    gdataClient.ProgrammaticLogin()\r\n    # Query the server for an Atom feed containing a list of your documents.\r\n    docsFeed = gdataClient.GetDocumentListFeed()\r\n    ####################################################################################\r\n    \r\n    return dict(docsFeed=docsFeed)\r\n\r\ndef gspreadtest():\r\n    clockEntries = db(db.timeclock.project == \'DDM\').select(db.timeclock.ALL, orderby=~db.timeclock.usr_id)\r\n\r\n    gc = gspread.login(\'dawg3tt@gmail.com\', \'mol090901!\')\r\n    ss = gc.open("web2py_tester")\r\n    wks = ss.sheet1\r\n    timeList = wks.range(\'A16:E30\')\r\n    for cell in timeList:\r\n        cell.value = \'\'\r\n    # wks.update_cells(timeList)\r\n    newks = ss.add_worksheet(title=\'clockEntries[0].usr_id\', rows="70", cols="5")\r\n    newks.update_cell(1,1, \'Invoice\')\r\n    copyRange = wks.range(\'A1:F30\')\r\n    headerRange = newks.range(\'A1:F30\')\r\n    # for cell in headerRange:\r\n    #     cell.value = copyRange.value\r\n    copyList = wks.get_all_values()\r\n    newks.update_cells(copyRange)\r\n\r\n    update = False\r\n    if update:\r\n        rate = 10\r\n        idx = 16\r\n        for entry in clockEntries:\r\n            wks.update_cell(idx, 1, entry.work_date)\r\n            wks.update_cell(idx, 2, entry.description)\r\n            wks.update_cell(idx, 3, entry.hours)\r\n            wks.update_cell(idx, 4, rate) #TODO: this should be replaced by a query for rate added by admin ################\r\n            wks.update_cell(idx, 5, rate*entry.hours)\r\n            idx += 1\r\n\r\n    return dict(\r\n        timeList=timeList, \r\n        clockEntries=clockEntries, \r\n        wks=wks,\r\n        newks=newks,\r\n        copyRange=copyRange, \r\n        copyList=copyList\r\n        )\r\n\r\n# def copyCells(values, newks):\r\n#     for row in values:\r\n#         for cell in rows:\r\n\nresponse._vars=response._caller(ask)\n'
p7
sS'snapshot'
p8
(dp9
S'exception'
p10
(dp11
S'__hash__'
p12
S"<method-wrapper '__hash__' of exceptions.UnboundLocalError object>"
p13
sS'__setattr__'
p14
S"<method-wrapper '__setattr__' of exceptions.UnboundLocalError object>"
p15
sS'__reduce_ex__'
p16
S'<built-in method __reduce_ex__ of exceptions.UnboundLocalError object>'
p17
sS'__getslice__'
p18
S"<method-wrapper '__getslice__' of exceptions.UnboundLocalError object>"
p19
sS'__getitem__'
p20
S"<method-wrapper '__getitem__' of exceptions.UnboundLocalError object>"
p21
sS'__setstate__'
p22
S'<built-in method __setstate__ of exceptions.UnboundLocalError object>'
p23
sS'args'
p24
S'("local variable \'payload_in\' referenced before assignment",)'
p25
sS'__reduce__'
p26
S'<built-in method __reduce__ of exceptions.UnboundLocalError object>'
p27
sS'__str__'
p28
S"<method-wrapper '__str__' of exceptions.UnboundLocalError object>"
p29
sS'__format__'
p30
S'<built-in method __format__ of exceptions.UnboundLocalError object>'
p31
sS'__getattribute__'
p32
S"<method-wrapper '__getattribute__' of exceptions.UnboundLocalError object>"
p33
sS'__class__'
p34
S"<type 'exceptions.UnboundLocalError'>"
p35
sS'__unicode__'
p36
S'<built-in method __unicode__ of exceptions.UnboundLocalError object>'
p37
sS'__delattr__'
p38
S"<method-wrapper '__delattr__' of exceptions.UnboundLocalError object>"
p39
sS'__subclasshook__'
p40
S'<built-in method __subclasshook__ of type object>'
p41
sS'__repr__'
p42
S"<method-wrapper '__repr__' of exceptions.UnboundLocalError object>"
p43
sS'__dict__'
p44
S'{}'
p45
sS'__sizeof__'
p46
S'<built-in method __sizeof__ of exceptions.UnboundLocalError object>'
p47
sS'__doc__'
p48
S"'Local name referenced but not bound to a value.'"
p49
sS'__init__'
p50
S"<method-wrapper '__init__' of exceptions.UnboundLocalError object>"
p51
sS'__new__'
p52
S'<built-in method __new__ of type object>'
p53
ssS'evalue'
p54
S"local variable 'payload_in' referenced before assignment"
p55
sS'request'
p56
cgluon.html
XML_unpickle
p57
(S's:]\x00\x00<div><table><tr><td style="font-weight:bold;vertical-align:top">ajax</td><td valign="top">:</td><td><div>True</div></td></tr><tr><td style="font-weight:bold;vertical-align:top">application</td><td valign="top">:</td><td><div>siri_admin</div></td></tr><tr><td style="font-weight:bold;vertical-align:top">args</td><td valign="top">:</td><td><div><table></table></div></td></tr><tr><td style="font-weight:bold;vertical-align:top">body</td><td valign="top">:</td><td><div>&lt;open file &#x27;&lt;fdopen&gt;&#x27;, mode &#x27;w+b&#x27; at 0x3ee0c90&gt;</div></td></tr><tr><td style="font-weight:bold;vertical-align:top">cid</td><td valign="top">:</td><td><div>c595251123573</div></td></tr><tr><td style="font-weight:bold;vertical-align:top">client</td><td valign="top">:</td><td><div>192.225.182.66</div></td></tr><tr><td style="font-weight:bold;vertical-align:top">controller</td><td valign="top">:</td><td><div>timeclock</div></td></tr><tr><td style="font-weight:bold;vertical-align:top">cookies</td><td valign="top">:</td><td><div><table><tr><td style="font-weight:bold;vertical-align:top">session_id_admin</td><td valign="top">:</td><td><div>71.220.151.125-63893bb3-3ae0-4786-8255-8b1ae375f8d0<table><tr><td style="font-weight:bold;vertical-align:top">comment</td><td valign="top">:</td><td><div></div></td></tr><tr><td style="font-weight:bold;vertical-align:top">domain</td><td valign="top">:</td><td><div></div></td></tr><tr><td style="font-weight:bold;vertical-align:top">expires</td><td valign="top">:</td><td><div></div></td></tr><tr><td style="font-weight:bold;vertical-align:top">httponly</td><td valign="top">:</td><td><div></div></td></tr><tr><td style="font-weight:bold;vertical-align:top">max-age</td><td valign="top">:</td><td><div></div></td></tr><tr><td style="font-weight:bold;vertical-align:top">path</td><td valign="top">:</td><td><div></div></td></tr><tr><td style="font-weight:bold;vertical-align:top">secure</td><td valign="top">:</td><td><div></div></td></tr><tr><td style="font-weight:bold;vertical-align:top">version</td><td valign="top">:</td><td><div></div></td></tr></table></div></td></tr><tr><td style="font-weight:bold;vertical-align:top">session_id_mqr</td><td valign="top">:</td><td><div>157.201.127.254-763194b4-74f6-4c3b-b23f-89cfe6822fd3<table><tr><td style="font-weight:bold;vertical-align:top">comment</td><td valign="top">:</td><td><div></div></td></tr><tr><td style="font-weight:bold;vertical-align:top">domain</td><td valign="top">:</td><td><div></div></td></tr><tr><td style="font-weight:bold;vertical-align:top">expires</td><td valign="top">:</td><td><div></div></td></tr><tr><td style="font-weight:bold;vertical-align:top">httponly</td><td valign="top">:</td><td><div></div></td></tr><tr><td style="font-weight:bold;vertical-align:top">max-age</td><td valign="top">:</td><td><div></div></td></tr><tr><td style="font-weight:bold;vertical-align:top">path</td><td valign="top">:</td><td><div></div></td></tr><tr><td style="font-weight:bold;vertical-align:top">secure</td><td valign="top">:</td><td><div></div></td></tr><tr><td style="font-weight:bold;vertical-align:top">version</td><td valign="top">:</td><td><div></div></td></tr></table></div></td></tr><tr><td style="font-weight:bold;vertical-align:top">session_id_siri_admin</td><td valign="top">:</td><td><div>71.220.151.125-5ca37dcb-b1e7-4f9d-8234-d07fec81a033<table><tr><td style="font-weight:bold;vertical-align:top">comment</td><td valign="top">:</td><td><div></div></td></tr><tr><td style="font-weight:bold;vertical-align:top">domain</td><td valign="top">:</td><td><div></div></td></tr><tr><td style="font-weight:bold;vertical-align:top">expires</td><td valign="top">:</td><td><div></div></td></tr><tr><td style="font-weight:bold;vertical-align:top">httponly</td><td valign="top">:</td><td><div></div></td></tr><tr><td style="font-weight:bold;vertical-align:top">max-age</td><td valign="top">:</td><td><div></div></td></tr><tr><td style="font-weight:bold;vertical-align:top">path</td><td valign="top">:</td><td><div></div></td></tr><tr><td style="font-weight:bold;vertical-align:top">secure</td><td valign="top">:</td><td><div></div></td></tr><tr><td style="font-weight:bold;vertical-align:top">version</td><td valign="top">:</td><td><div></div></td></tr></table></div></td></tr><tr><td style="font-weight:bold;vertical-align:top">sessionid</td><td valign="top">:</td><td><div>2cb9f237de717369451ab9d112c9ab68<table><tr><td style="font-weight:bold;vertical-align:top">comment</td><td valign="top">:</td><td><div></div></td></tr><tr><td style="font-weight:bold;vertical-align:top">domain</td><td valign="top">:</td><td><div></div></td></tr><tr><td style="font-weight:bold;vertical-align:top">expires</td><td valign="top">:</td><td><div></div></td></tr><tr><td style="font-weight:bold;vertical-align:top">httponly</td><td valign="top">:</td><td><div></div></td></tr><tr><td style="font-weight:bold;vertical-align:top">max-age</td><td valign="top">:</td><td><div></div></td></tr><tr><td style="font-weight:bold;vertical-align:top">path</td><td valign="top">:</td><td><div></div></td></tr><tr><td style="font-weight:bold;vertical-align:top">secure</td><td valign="top">:</td><td><div></div></td></tr><tr><td style="font-weight:bold;vertical-align:top">version</td><td valign="top">:</td><td><div></div></td></tr></table></div></td></tr></table></div></td></tr><tr><td style="font-weight:bold;vertical-align:top">env</td><td valign="top">:</td><td><div><table><tr><td style="font-weight:bold;vertical-align:top">app_folders</td><td valign="top">:</td><td><div>set([&#x27;/home/SIRI/web2py/applications/siri_admin/&#x27;])</div></td></tr><tr><td style="font-weight:bold;vertical-align:top">applications_parent</td><td valign="top">:</td><td><div>/home/SIRI/web2py</div></td></tr><tr><td style="font-weight:bold;vertical-align:top">content_length</td><td valign="top">:</td><td><div>110</div></td></tr><tr><td style="font-weight:bold;vertical-align:top">content_type</td><td valign="top">:</td><td><div>application/x-www-form-urlencoded; charset=UTF-8</div></td></tr><tr><td style="font-weight:bold;vertical-align:top">db_sessions</td><td valign="top">:</td><td><div>set([])</div></td></tr><tr><td style="font-weight:bold;vertical-align:top">debugging</td><td valign="top">:</td><td><div>False</div></td></tr><tr><td style="font-weight:bold;vertical-align:top">document_root</td><td valign="top">:</td><td><div>/usr/share/nginx/html</div></td></tr><tr><td style="font-weight:bold;vertical-align:top">gluon_parent</td><td valign="top">:</td><td><div>/home/SIRI/web2py</div></td></tr><tr><td style="font-weight:bold;vertical-align:top">http_accept</td><td valign="top">:</td><td><div>*/*</div></td></tr><tr><td style="font-weight:bold;vertical-align:top">http_accept_encoding</td><td valign="top">:</td><td><div>gzip, deflate</div></td></tr><tr><td style="font-weight:bold;vertical-align:top">http_accept_language</td><td valign="top">:</td><td><div>en-US,en;q=0.5</div></td></tr><tr><td style="font-weight:bold;vertical-align:top">http_cache_control</td><td valign="top">:</td><td><div>no-cache</div></td></tr><tr><td style="font-weight:bold;vertical-align:top">http_connection</td><td valign="top">:</td><td><div>close</div></td></tr><tr><td style="font-weight:bold;vertical-align:top">http_content_length</td><td valign="top">:</td><td><div>110</div></td></tr><tr><td style="font-weight:bold;vertical-align:top">http_content_type</td><td valign="top">:</td><td><div>application/x-www-form-urlencoded; charset=UTF-8</div></td></tr><tr><td style="font-weight:bold;vertical-align:top">http_cookie</td><td valign="top">:</td><td><div>__utma=133430031.1807339217.1380898194.1385845151.1386202159.16; __utmz=133430031.1380898194.1.1.utmcsr=(direct)|utmccn=(direct)|utmcmd=(none); __utmc=133430031; session_id_admin=71.220.151.125-63893bb3-3ae0-4786-8255-8b1ae375f8d0; session_id_siri_admin=71.220.151.125-5ca37dcb-b1e7-4f9d-8234-d07fec81a033; session_id_mqr=157.201.127.254-763194b4-74f6-4c3b-b23f-89cfe6822fd3; sessionid=2cb9f237de717369451ab9d112c9ab68</div></td></tr><tr><td style="font-weight:bold;vertical-align:top">http_host</td><td valign="top">:</td><td><div>siri.pythonanywhere.com</div></td></tr><tr><td style="font-weight:bold;vertical-align:top">http_pragma</td><td valign="top">:</td><td><div>no-cache</div></td></tr><tr><td style="font-weight:bold;vertical-align:top">http_referer</td><td valign="top">:</td><td><div>https://siri.pythonanywhere.com/siri_admin/timeclock/employeedash</div></td></tr><tr><td style="font-weight:bold;vertical-align:top">http_user_agent</td><td valign="top">:</td><td><div>Mozilla/5.0 (Windows NT 6.3; WOW64; rv:25.0) Gecko/20100101 Firefox/25.0 FirePHP/0.7.4</div></td></tr><tr><td style="font-weight:bold;vertical-align:top">http_web2py_component_element</td><td valign="top">:</td><td><div>c595251123573</div></td></tr><tr><td style="font-weight:bold;vertical-align:top">http_web2py_component_location</td><td valign="top">:</td><td><div>https://siri.pythonanywhere.com/siri_admin/timeclock/employeedash</div></td></tr><tr><td style="font-weight:bold;vertical-align:top">http_x_forwarded_for</td><td valign="top">:</td><td><div>192.225.182.66</div></td></tr><tr><td style="font-weight:bold;vertical-align:top">http_x_insight</td><td valign="top">:</td><td><div>activate</div></td></tr><tr><td style="font-weight:bold;vertical-align:top">http_x_real_ip</td><td valign="top">:</td><td><div>192.225.182.66</div></td></tr><tr><td style="font-weight:bold;vertical-align:top">http_x_requested_with</td><td valign="top">:</td><td><div>XMLHttpRequest</div></td></tr><tr><td style="font-weight:bold;vertical-align:top">https</td><td valign="top">:</td><td><div>on</div></td></tr><tr><td style="font-weight:bold;vertical-align:top">is_jython</td><td valign="top">:</td><td><div>False</div></td></tr><tr><td style="font-weight:bold;vertical-align:top">is_pypy</td><td valign="top">:</td><td><div>False</div></td></tr><tr><td style="font-weight:bold;vertical-align:top">local_hosts</td><td valign="top">:</td><td><div><table><tr><td><div>giles-liveweb2</div></td></tr><tr><td><div>::ffff:127.0.0.1</div></td></tr><tr><td><div>::1</div></td></tr><tr><td><div>50.19.109.98</div></td></tr><tr><td><div>localhost</div></td></tr><tr><td><div>siri.pythonanywhere.com</div></td></tr><tr><td><div>127.0.0.1</div></td></tr></table></div></td></tr><tr><td style="font-weight:bold;vertical-align:top">path_info</td><td valign="top">:</td><td><div>/siri_admin/timeclock/ask.load</div></td></tr><tr><td style="font-weight:bold;vertical-align:top">query_string</td><td valign="top">:</td><td><div></div></td></tr><tr><td style="font-weight:bold;vertical-align:top">remote_addr</td><td valign="top">:</td><td><div>10.124.47.47</div></td></tr><tr><td style="font-weight:bold;vertical-align:top">remote_port</td><td valign="top">:</td><td><div>46329</div></td></tr><tr><td style="font-weight:bold;vertical-align:top">request_method</td><td valign="top">:</td><td><div>POST</div></td></tr><tr><td style="font-weight:bold;vertical-align:top">request_uri</td><td valign="top">:</td><td><div>/siri_admin/timeclock/ask.load</div></td></tr><tr><td style="font-weight:bold;vertical-align:top">script_name</td><td valign="top">:</td><td><div></div></td></tr><tr><td style="font-weight:bold;vertical-align:top">server_name</td><td valign="top">:</td><td><div>siri.pythonanywhere.com</div></td></tr><tr><td style="font-weight:bold;vertical-align:top">server_port</td><td valign="top">:</td><td><div>443</div></td></tr><tr><td style="font-weight:bold;vertical-align:top">server_protocol</td><td valign="top">:</td><td><div>HTTP/1.1</div></td></tr><tr><td style="font-weight:bold;vertical-align:top">uwsgi_node</td><td valign="top">:</td><td><div>giles-liveweb2</div></td></tr><tr><td style="font-weight:bold;vertical-align:top">uwsgi_version</td><td valign="top">:</td><td><div>1.9.20</div></td></tr><tr><td style="font-weight:bold;vertical-align:top">web2py_path</td><td valign="top">:</td><td><div>/home/SIRI/web2py</div></td></tr><tr><td style="font-weight:bold;vertical-align:top">web2py_version</td><td valign="top">:</td><td><div>2.5.1-stable+timestamp.2013.06.06.15.39.19</div></td></tr><tr><td style="font-weight:bold;vertical-align:top">wsgi_errors</td><td valign="top">:</td><td><div>&lt;uwsgi_file__bin_user_wsgi_wrapper.ErrorLogFile object at 0x3beec90&gt;</div></td></tr><tr><td style="font-weight:bold;vertical-align:top">wsgi_file_wrapper</td><td valign="top">:</td><td><div>&lt;built-in function uwsgi_sendfile&gt;</div></td></tr><tr><td style="font-weight:bold;vertical-align:top">wsgi_input</td><td valign="top">:</td><td><div>&lt;uwsgi._Input object at 0x7fd9233b8750&gt;</div></td></tr><tr><td style="font-weight:bold;vertical-align:top">wsgi_multiprocess</td><td valign="top">:</td><td><div>True</div></td></tr><tr><td style="font-weight:bold;vertical-align:top">wsgi_multithread</td><td valign="top">:</td><td><div>False</div></td></tr><tr><td style="font-weight:bold;vertical-align:top">wsgi_run_once</td><td valign="top">:</td><td><div>False</div></td></tr><tr><td style="font-weight:bold;vertical-align:top">wsgi_url_scheme</td><td valign="top">:</td><td><div>https</div></td></tr><tr><td style="font-weight:bold;vertical-align:top">wsgi_version</td><td valign="top">:</td><td><div><table><tr><td><div>1</div></td></tr><tr><td><div>0</div></td></tr></table></div></td></tr></table></div></td></tr><tr><td style="font-weight:bold;vertical-align:top">extension</td><td valign="top">:</td><td><div>load</div></td></tr><tr><td style="font-weight:bold;vertical-align:top">folder</td><td valign="top">:</td><td><div>/home/SIRI/web2py/applications/siri_admin/</div></td></tr><tr><td style="font-weight:bold;vertical-align:top">function</td><td valign="top">:</td><td><div>ask</div></td></tr><tr><td style="font-weight:bold;vertical-align:top">get_vars</td><td valign="top">:</td><td><div><table></table></div></td></tr><tr><td style="font-weight:bold;vertical-align:top">global_settings</td><td valign="top">:</td><td><div><table><tr><td style="font-weight:bold;vertical-align:top">app_folders</td><td valign="top">:</td><td><div>set([&#x27;/home/SIRI/web2py/applications/siri_admin/&#x27;])</div></td></tr><tr><td style="font-weight:bold;vertical-align:top">applications_parent</td><td valign="top">:</td><td><div>/home/SIRI/web2py</div></td></tr><tr><td style="font-weight:bold;vertical-align:top">db_sessions</td><td valign="top">:</td><td><div>set([])</div></td></tr><tr><td style="font-weight:bold;vertical-align:top">debugging</td><td valign="top">:</td><td><div>False</div></td></tr><tr><td style="font-weight:bold;vertical-align:top">gluon_parent</td><td valign="top">:</td><td><div>/home/SIRI/web2py</div></td></tr><tr><td style="font-weight:bold;vertical-align:top">is_jython</td><td valign="top">:</td><td><div>False</div></td></tr><tr><td style="font-weight:bold;vertical-align:top">is_pypy</td><td valign="top">:</td><td><div>False</div></td></tr><tr><td style="font-weight:bold;vertical-align:top">local_hosts</td><td valign="top">:</td><td><div><table><tr><td><div>giles-liveweb2</div></td></tr><tr><td><div>::ffff:127.0.0.1</div></td></tr><tr><td><div>::1</div></td></tr><tr><td><div>50.19.109.98</div></td></tr><tr><td><div>localhost</div></td></tr><tr><td><div>siri.pythonanywhere.com</div></td></tr><tr><td><div>127.0.0.1</div></td></tr></table></div></td></tr><tr><td style="font-weight:bold;vertical-align:top">web2py_version</td><td valign="top">:</td><td><div>2.5.1-stable+timestamp.2013.06.06.15.39.19</div></td></tr></table></div></td></tr><tr><td style="font-weight:bold;vertical-align:top">is_https</td><td valign="top">:</td><td><div>True</div></td></tr><tr><td style="font-weight:bold;vertical-align:top">is_local</td><td valign="top">:</td><td><div>False</div></td></tr><tr><td style="font-weight:bold;vertical-align:top">is_restful</td><td valign="top">:</td><td><div>False</div></td></tr><tr><td style="font-weight:bold;vertical-align:top">now</td><td valign="top">:</td><td><div>datetime.datetime(2013, 12, 5, 19, 46, 22, 642771)</div></td></tr><tr><td style="font-weight:bold;vertical-align:top">post_vars</td><td valign="top">:</td><td><div><table><tr><td style="font-weight:bold;vertical-align:top">message</td><td valign="top">:</td><td><div>this submission is negative.</div></td></tr></table></div></td></tr><tr><td style="font-weight:bold;vertical-align:top">raw_args</td><td valign="top">:</td><td><div></div></td></tr><tr><td style="font-weight:bold;vertical-align:top">raw_extension</td><td valign="top">:</td><td><div>load</div></td></tr><tr><td style="font-weight:bold;vertical-align:top">url</td><td valign="top">:</td><td><div>/siri_admin/timeclock/ask.load</div></td></tr><tr><td style="font-weight:bold;vertical-align:top">utcnow</td><td valign="top">:</td><td><div>datetime.datetime(2013, 12, 5, 19, 46, 22, 642793)</div></td></tr><tr><td style="font-weight:bold;vertical-align:top">uuid</td><td valign="top">:</td><td><div>siri_admin/192.225.182.66.2013-12-05.19-46-22.f54f6e13-3b8e-4ff3-ac58-60d0c6b5fcb1</div></td></tr><tr><td style="font-weight:bold;vertical-align:top">vars</td><td valign="top">:</td><td><div><table><tr><td style="font-weight:bold;vertical-align:top">message</td><td valign="top">:</td><td><div>this submission is negative.</div></td></tr></table></div></td></tr><tr><td style="font-weight:bold;vertical-align:top">wsgi</td><td valign="top">:</td><td><div><table><tr><td style="font-weight:bold;vertical-align:top">environ</td><td valign="top">:</td><td><div><table><tr><td style="font-weight:bold;vertical-align:top">CONTENT_LENGTH</td><td valign="top">:</td><td><div>110</div></td></tr><tr><td style="font-weight:bold;vertical-align:top">CONTENT_TYPE</td><td valign="top">:</td><td><div>application/x-www-form-urlencoded; charset=UTF-8</div></td></tr><tr><td style="font-weight:bold;vertical-align:top">DOCUMENT_ROOT</td><td valign="top">:</td><td><div>/usr/share/nginx/html</div></td></tr><tr><td style="font-weight:bold;vertical-align:top">HTTPS</td><td valign="top">:</td><td><div>on</div></td></tr><tr><td style="font-weight:bold;vertical-align:top">HTTP_ACCEPT</td><td valign="top">:</td><td><div>*/*</div></td></tr><tr><td style="font-weight:bold;vertical-align:top">HTTP_ACCEPT_ENCODING</td><td valign="top">:</td><td><div>gzip, deflate</div></td></tr><tr><td style="font-weight:bold;vertical-align:top">HTTP_ACCEPT_LANGUAGE</td><td valign="top">:</td><td><div>en-US,en;q=0.5</div></td></tr><tr><td style="font-weight:bold;vertical-align:top">HTTP_CACHE_CONTROL</td><td valign="top">:</td><td><div>no-cache</div></td></tr><tr><td style="font-weight:bold;vertical-align:top">HTTP_CONNECTION</td><td valign="top">:</td><td><div>close</div></td></tr><tr><td style="font-weight:bold;vertical-align:top">HTTP_CONTENT_LENGTH</td><td valign="top">:</td><td><div>110</div></td></tr><tr><td style="font-weight:bold;vertical-align:top">HTTP_CONTENT_TYPE</td><td valign="top">:</td><td><div>application/x-www-form-urlencoded; charset=UTF-8</div></td></tr><tr><td style="font-weight:bold;vertical-align:top">HTTP_COOKIE</td><td valign="top">:</td><td><div>__utma=133430031.1807339217.1380898194.1385845151.1386202159.16; __utmz=133430031.1380898194.1.1.utmcsr=(direct)|utmccn=(direct)|utmcmd=(none); __utmc=133430031; session_id_admin=71.220.151.125-63893bb3-3ae0-4786-8255-8b1ae375f8d0; session_id_siri_admin=71.220.151.125-5ca37dcb-b1e7-4f9d-8234-d07fec81a033; session_id_mqr=157.201.127.254-763194b4-74f6-4c3b-b23f-89cfe6822fd3; sessionid=2cb9f237de717369451ab9d112c9ab68</div></td></tr><tr><td style="font-weight:bold;vertical-align:top">HTTP_HOST</td><td valign="top">:</td><td><div>siri.pythonanywhere.com</div></td></tr><tr><td style="font-weight:bold;vertical-align:top">HTTP_PRAGMA</td><td valign="top">:</td><td><div>no-cache</div></td></tr><tr><td style="font-weight:bold;vertical-align:top">HTTP_REFERER</td><td valign="top">:</td><td><div>https://siri.pythonanywhere.com/siri_admin/timeclock/employeedash</div></td></tr><tr><td style="font-weight:bold;vertical-align:top">HTTP_USER_AGENT</td><td valign="top">:</td><td><div>Mozilla/5.0 (Windows NT 6.3; WOW64; rv:25.0) Gecko/20100101 Firefox/25.0 FirePHP/0.7.4</div></td></tr><tr><td style="font-weight:bold;vertical-align:top">HTTP_WEB2PY_COMPONENT_ELEMENT</td><td valign="top">:</td><td><div>c595251123573</div></td></tr><tr><td style="font-weight:bold;vertical-align:top">HTTP_WEB2PY_COMPONENT_LOCATION</td><td valign="top">:</td><td><div>https://siri.pythonanywhere.com/siri_admin/timeclock/employeedash</div></td></tr><tr><td style="font-weight:bold;vertical-align:top">HTTP_X_FORWARDED_FOR</td><td valign="top">:</td><td><div>192.225.182.66</div></td></tr><tr><td style="font-weight:bold;vertical-align:top">HTTP_X_INSIGHT</td><td valign="top">:</td><td><div>activate</div></td></tr><tr><td style="font-weight:bold;vertical-align:top">HTTP_X_REAL_IP</td><td valign="top">:</td><td><div>192.225.182.66</div></td></tr><tr><td style="font-weight:bold;vertical-align:top">HTTP_X_REQUESTED_WITH</td><td valign="top">:</td><td><div>XMLHttpRequest</div></td></tr><tr><td style="font-weight:bold;vertical-align:top">PATH_INFO</td><td valign="top">:</td><td><div>/siri_admin/timeclock/ask.load</div></td></tr><tr><td style="font-weight:bold;vertical-align:top">QUERY_STRING</td><td valign="top">:</td><td><div></div></td></tr><tr><td style="font-weight:bold;vertical-align:top">REMOTE_ADDR</td><td valign="top">:</td><td><div>10.124.47.47</div></td></tr><tr><td style="font-weight:bold;vertical-align:top">REMOTE_PORT</td><td valign="top">:</td><td><div>46329</div></td></tr><tr><td style="font-weight:bold;vertical-align:top">REQUEST_METHOD</td><td valign="top">:</td><td><div>POST</div></td></tr><tr><td style="font-weight:bold;vertical-align:top">REQUEST_URI</td><td valign="top">:</td><td><div>/siri_admin/timeclock/ask.load</div></td></tr><tr><td style="font-weight:bold;vertical-align:top">SCRIPT_NAME</td><td valign="top">:</td><td><div></div></td></tr><tr><td style="font-weight:bold;vertical-align:top">SERVER_NAME</td><td valign="top">:</td><td><div>siri.pythonanywhere.com</div></td></tr><tr><td style="font-weight:bold;vertical-align:top">SERVER_PORT</td><td valign="top">:</td><td><div>443</div></td></tr><tr><td style="font-weight:bold;vertical-align:top">SERVER_PROTOCOL</td><td valign="top">:</td><td><div>HTTP/1.1</div></td></tr><tr><td style="font-weight:bold;vertical-align:top">uwsgi.node</td><td valign="top">:</td><td><div>giles-liveweb2</div></td></tr><tr><td style="font-weight:bold;vertical-align:top">uwsgi.version</td><td valign="top">:</td><td><div>1.9.20</div></td></tr><tr><td style="font-weight:bold;vertical-align:top">wsgi.errors</td><td valign="top">:</td><td><div>&lt;uwsgi_file__bin_user_wsgi_wrapper.ErrorLogFile object at 0x3beec90&gt;</div></td></tr><tr><td style="font-weight:bold;vertical-align:top">wsgi.file_wrapper</td><td valign="top">:</td><td><div>&lt;built-in function uwsgi_sendfile&gt;</div></td></tr><tr><td style="font-weight:bold;vertical-align:top">wsgi.input</td><td valign="top">:</td><td><div>&lt;open file &#x27;&lt;fdopen&gt;&#x27;, mode &#x27;w+b&#x27; at 0x3ee0c90&gt;</div></td></tr><tr><td style="font-weight:bold;vertical-align:top">wsgi.multiprocess</td><td valign="top">:</td><td><div>True</div></td></tr><tr><td style="font-weight:bold;vertical-align:top">wsgi.multithread</td><td valign="top">:</td><td><div>False</div></td></tr><tr><td style="font-weight:bold;vertical-align:top">wsgi.run_once</td><td valign="top">:</td><td><div>False</div></td></tr><tr><td style="font-weight:bold;vertical-align:top">wsgi.url_scheme</td><td valign="top">:</td><td><div>https</div></td></tr><tr><td style="font-weight:bold;vertical-align:top">wsgi.version</td><td valign="top">:</td><td><div>1</div></td></tr></table></div></td></tr></table></div></td></tr></table></div>'
tRp58
sS'frames'
p59
(lp60
(dp61
S'file'
p62
S'/home/SIRI/web2py/gluon/restricted.py'
p63
sS'dump'
p64
(dp65
S'environment'
p66
S"{'A': <class 'gluon.html.A'>, 'ANTLRException': <class 'xlwt.antlr.ANTLRException'>, 'ANY_OF': <class 'gluon.validators.ANY_OF'>, 'Alignment': <class 'xlwt.Formatting.Alignment'>, 'Auth': <class 'gluon.tools.Auth'>, 'B': <class 'gluon.html.B'>, 'BEAUTIFY': <class 'gluon.html.BEAUTIFY'>, 'BIFFRecords': <module 'xlwt.BIFFRecords' from '/usr/local/lib/python2.7/dist-packages/xlwt/BIFFRecords.py'>, 'BODY': <class 'gluon.html.BODY'>, 'BR': <class 'gluon.html.BR'>, ...}"
p67
sS'ccode'
p68
S'<code object <module> at 0x3f56330, file "/home/...ons/siri_admin/controllers/timeclock.py", line 2>'
p69
ssS'lnum'
p70
I212
sS'lines'
p71
(dp72
I207
S'    try:'
p73
sI208
S'        if isinstance(code, types.CodeType):'
p74
sI209
S'            ccode = code'
p75
sI210
S'        else:'
p76
sI211
S'            ccode = compile2(code, layer)'
p77
sI212
S'        exec ccode in environment'
p78
sI213
S'    except HTTP:'
p79
sI214
S'        raise'
p80
sI215
S'    except RestrictedError:'
p81
sI216
S'        # do not encapsulate (obfuscate) the original RestrictedError'
p82
ssS'call'
p83
S"(code='########## Some Global Variables ##############\\r... in rows:\\r\\n\\nresponse._vars=response._caller(ask)\\n', environment={'A': <class 'gluon.html.A'>, 'ANTLRException': <class 'xlwt.antlr.ANTLRException'>, 'ANY_OF': <class 'gluon.validators.ANY_OF'>, 'Alignment': <class 'xlwt.Formatting.Alignment'>, 'Auth': <class 'gluon.tools.Auth'>, 'B': <class 'gluon.html.B'>, 'BEAUTIFY': <class 'gluon.html.BEAUTIFY'>, 'BIFFRecords': <module 'xlwt.BIFFRecords' from '/usr/local/lib/python2.7/dist-packages/xlwt/BIFFRecords.py'>, 'BODY': <class 'gluon.html.BODY'>, 'BR': <class 'gluon.html.BR'>, ...}, layer='/home/SIRI/web2py/applications/siri_admin/controllers/timeclock.py')"
p84
sS'func'
p85
S'restricted'
p86
sa(dp87
g62
S'/home/SIRI/web2py/applications/siri_admin/controllers/timeclock.py'
p88
sg64
(dp89
sg70
I282
sg71
(dp90
I271
S'        clockEntries=clockEntries,'
p91
sI272
S'        wks=wks,'
p92
sI273
S'        newks=newks,'
p93
sI274
S'        copyRange=copyRange,'
p94
sI275
S'        copyList=copyList'
p95
sI276
S'        )'
p96
sI277
S''
sI278
S'# def copyCells(values, newks):'
p97
sI279
S'#     for row in values:'
p98
sI280
S'#         for cell in rows:'
p99
ssg83
S'()'
p100
sg85
S'<module>'
p101
sa(dp102
g62
S'/home/SIRI/web2py/gluon/globals.py'
p103
sg64
(dp104
S'self'
p105
S'undefined'
p106
sS'f'
S'<function ask>'
p107
ssg70
I194
sg71
(dp108
I192
S"        self.delimiters = ('{{', '}}')"
p109
sI193
S'        self._vars = None'
p110
sI194
S'        self._caller = lambda f: f()'
p111
sI195
S'        self._view_environment = None'
p112
sI196
S'        self._custom_commit = None'
p113
sI197
S'        self._custom_rollback = None'
p114
sI198
S''
sI189
S'        self.menu = []             # used by the default view layout'
p115
sI190
S'        self.files = []            # used by web2py_ajax.html'
p116
sI191
S'        self.generic_patterns = []  # patterns to allow generic views'
p117
ssg83
S'(f=<function ask>)'
p118
sg85
S'<lambda>'
p119
sa(dp120
g62
S'/home/SIRI/web2py/applications/siri_admin/controllers/timeclock.py'
p121
sg64
(dp122
S'message'
p123
g106
sS'form.vars'
p124
S"<Storage {'message': 'this submission is negative.', 'id': None}>"
p125
sS'form.vars.question'
p126
S'None'
p127
sS'form'
p128
S'<gluon.sqlhtml.SQLFORM object>'
p129
ssg70
I38
sg71
(dp130
I33
S'    form=SQLFORM.factory('
p131
sI34
S"        Field('message', requires=IS_NOT_EMPTY()))"
p132
sI35
S'    if form.process().accepted:'
p133
sI36
S"        if mail.send(to='e.caldwell@sirinstitute.org',"
p134
sI37
S"                  subject='from %s' % session.auth.user.email,"
p135
sI38
S'                  message = form.vars.question):'
p136
sI39
S"            response.flash = 'Thank you'"
p137
sI40
S'            response.js = "jQuery(\'#%s\').hide()" % request.cid'
p138
sI41
S'        else:'
p139
sI42
S'            form.errors.your_email = "Unable to send the email"'
p140
ssg83
S'()'
p141
sg85
S'ask'
p142
sa(dp143
g62
S'/home/SIRI/web2py/gluon/tools.py'
p144
sg64
(dp145
S'payload_in'
p146
g106
sS'payload'
p147
g106
ssg70
I654
sg71
(dp148
I649
S'            out.close()'
p149
sI650
S'            st = str(out.read())'
p150
sI651
S'            payload = message_from_string(st)'
p151
sI652
S'        else:'
p152
sI653
S'            # no cryptography process as usual'
p153
sI654
S'            payload = payload_in'
p154
sI655
S''
sI656
S"        payload['From'] = encoded_or_raw(sender.decode(encoding))"
p155
sI657
S'        origTo = to[:]'
p156
sI658
S'        if to:'
p157
ssg83
S"(self=<gluon.tools.Mail object>, to=['e.caldwell@sirinstitute.org'], subject='from evancaldwell@yahoo.com', message=None, attachments=None, cc=None, bcc=None, reply_to=None, sender='e.caldwell@sirinstitute.org', encoding='utf-8', raw=False, headers={})"
p158
sg85
S'send'
p159
sasS'pyver'
p160
S'Python 2.7.5+: /usr/local/bin/uwsgi (prefix: /usr)'
p161
sS'session'
p162
g57
(S'sa\t\x00\x00<div><table><tr><td style="font-weight:bold;vertical-align:top">auth</td><td valign="top">:</td><td><div><table><tr><td style="font-weight:bold;vertical-align:top">expiration</td><td valign="top">:</td><td><div>3600</div></td></tr><tr><td style="font-weight:bold;vertical-align:top">hmac_key</td><td valign="top">:</td><td><div>883c6732-3b51-4cb0-a223-18e07882a81a</div></td></tr><tr><td style="font-weight:bold;vertical-align:top">last_visit</td><td valign="top">:</td><td><div>datetime.datetime(2013, 12, 5, 19, 46, 10, 570871)</div></td></tr><tr><td style="font-weight:bold;vertical-align:top">remember</td><td valign="top">:</td><td><div>False</div></td></tr><tr><td style="font-weight:bold;vertical-align:top">user</td><td valign="top">:</td><td><div><table><tr><td style="font-weight:bold;vertical-align:top">email</td><td valign="top">:</td><td><div>evancaldwell@yahoo.com</div></td></tr><tr><td style="font-weight:bold;vertical-align:top">first_name</td><td valign="top">:</td><td><div>Evan</div></td></tr><tr><td style="font-weight:bold;vertical-align:top">id</td><td valign="top">:</td><td><div>1L</div></td></tr><tr><td style="font-weight:bold;vertical-align:top">last_name</td><td valign="top">:</td><td><div>Caldwell</div></td></tr><tr><td style="font-weight:bold;vertical-align:top">registration_id</td><td valign="top">:</td><td><div></div></td></tr><tr><td style="font-weight:bold;vertical-align:top">registration_key</td><td valign="top">:</td><td><div></div></td></tr><tr><td style="font-weight:bold;vertical-align:top">reset_password_key</td><td valign="top">:</td><td><div></div></td></tr></table></div></td></tr><tr><td style="font-weight:bold;vertical-align:top">user_groups</td><td valign="top">:</td><td><div><table><tr><td style="font-weight:bold;vertical-align:top">1</td><td valign="top">:</td><td><div>user_1</div></td></tr><tr><td style="font-weight:bold;vertical-align:top">3</td><td valign="top">:</td><td><div>Super Admin</div></td></tr></table></div></td></tr></table></div></td></tr><tr><td style="font-weight:bold;vertical-align:top">flash</td><td valign="top">:</td><td><div>None</div></td></tr><tr><td style="font-weight:bold;vertical-align:top">last_orderby</td><td valign="top">:</td><td><div>None</div></td></tr><tr><td style="font-weight:bold;vertical-align:top">last_query</td><td valign="top">:</td><td><div>db.auth_user.id&gt;0</div></td></tr></table></div>'
tRp163
sS'etype'
p164
S"<type 'exceptions.UnboundLocalError'>"
p165
sS'date'
p166
S'Thu Dec  5 19:46:23 2013'
p167
sS'response'
p168
g57
(S's\x0e-\x00\x00<div><table><tr><td style="font-weight:bold;vertical-align:top">body</td><td valign="top">:</td><td><div>&lt;cStringIO.StringO object at 0x3f6fae8&gt;</div></td></tr><tr><td style="font-weight:bold;vertical-align:top">cookies</td><td valign="top">:</td><td><div><table><tr><td style="font-weight:bold;vertical-align:top">session_id_siri_admin</td><td valign="top">:</td><td><div>71.220.151.125-5ca37dcb-b1e7-4f9d-8234-d07fec81a033<table><tr><td style="font-weight:bold;vertical-align:top">comment</td><td valign="top">:</td><td><div></div></td></tr><tr><td style="font-weight:bold;vertical-align:top">domain</td><td valign="top">:</td><td><div></div></td></tr><tr><td style="font-weight:bold;vertical-align:top">expires</td><td valign="top">:</td><td><div></div></td></tr><tr><td style="font-weight:bold;vertical-align:top">httponly</td><td valign="top">:</td><td><div></div></td></tr><tr><td style="font-weight:bold;vertical-align:top">max-age</td><td valign="top">:</td><td><div></div></td></tr><tr><td style="font-weight:bold;vertical-align:top">path</td><td valign="top">:</td><td><div>/</div></td></tr><tr><td style="font-weight:bold;vertical-align:top">secure</td><td valign="top">:</td><td><div></div></td></tr><tr><td style="font-weight:bold;vertical-align:top">version</td><td valign="top">:</td><td><div></div></td></tr></table></div></td></tr></table></div></td></tr><tr><td style="font-weight:bold;vertical-align:top">delimiters</td><td valign="top">:</td><td><div><table><tr><td><div>{{</div></td></tr><tr><td><div>}}</div></td></tr></table></div></td></tr><tr><td style="font-weight:bold;vertical-align:top">files</td><td valign="top">:</td><td><div><table></table></div></td></tr><tr><td style="font-weight:bold;vertical-align:top">flash</td><td valign="top">:</td><td><div>Success!</div></td></tr><tr><td style="font-weight:bold;vertical-align:top">generic_patterns</td><td valign="top">:</td><td><div><table></table></div></td></tr><tr><td style="font-weight:bold;vertical-align:top">google_analytics_id</td><td valign="top">:</td><td><div>None</div></td></tr><tr><td style="font-weight:bold;vertical-align:top">headers</td><td valign="top">:</td><td><div><table><tr><td style="font-weight:bold;vertical-align:top">X-Powered-By</td><td valign="top">:</td><td><div>web2py</div></td></tr></table></div></td></tr><tr><td style="font-weight:bold;vertical-align:top">logo</td><td valign="top">:</td><td><div><a class="brand" href="/siri_admin/default/clockadmin.load"><b>SIRI</b>&trade;&nbsp;</a></div></td></tr><tr><td style="font-weight:bold;vertical-align:top">menu</td><td valign="top">:</td><td><div><table><tr><td><div><table><tr><td><div>Home</div></td></tr><tr><td><div>False</div></td></tr><tr><td><div>/siri_admin/default/index.load</div></td></tr><tr><td><div><table></table></div></td></tr></table></div></td></tr><tr><td><div><table><tr><td><div><span class="highlighted">web2py</span></div></td></tr><tr><td><div>False</div></td></tr><tr><td><div>http://web2py.com</div></td></tr><tr><td><div><table><tr><td><div><table><tr><td><div>My Sites</div></td></tr><tr><td><div>False</div></td></tr><tr><td><div>/admin/default/site.load</div></td></tr></table></div></td></tr><tr><td><div><table><tr><td><div>This App</div></td></tr><tr><td><div>False</div></td></tr><tr><td><div>/admin/default/design.load/siri_admin</div></td></tr><tr><td><div>[(&lt;lazyT &#x27;Controller&#x27;&gt;, False, &#x27;/admin/default/edit.load/siri_admin/controllers/timeclock.py&#x27;), (&lt;lazyT &#x27;View&#x27;&gt;, False, &#x27;/admin/default/edit.load/siri_admin/views/timeclock/ask.load&#x27;), (&lt;lazyT &#x27;Layout&#x27;&gt;, False, &#x27;/admin/default/edit.load/siri_admin/views/layout.html&#x27;), (&lt;lazyT &#x27;Stylesheet&#x27;&gt;, False, &#x27;/admin/default/edit.load/siri_admin/static/css/web2py.css&#x27;), (&lt;lazyT &#x27;DB Model&#x27;&gt;, False, &#x27;/admin/default/edit.load/siri_admin/models/db.py&#x27;), (&lt;lazyT &#x27;Menu Model&#x27;&gt;, False, &#x27;/admin/default/edit.load/siri_admin/models/menu.py&#x27;), (&lt;lazyT &#x27;Database&#x27;&gt;, False, &#x27;/siri_admin/appadmin/index.load&#x27;), (&lt;lazyT &#x27;Errors&#x27;&gt;, False, &#x27;/admin/default/errors.load/siri_admin&#x27;), (&lt;lazyT &#x27;About&#x27;&gt;, False, &#x27;/admin/default/about.load/siri_admin&#x27;)]</div></td></tr></table></div></td></tr><tr><td><div><table><tr><td><div>web2py.com</div></td></tr><tr><td><div>False</div></td></tr><tr><td><div>http://www.web2py.com</div></td></tr><tr><td><div>[(&lt;lazyT &#x27;Download&#x27;&gt;, False, &#x27;http://www.web2py.com/examples/default/download&#x27;), (&lt;lazyT &#x27;Support&#x27;&gt;, False, &#x27;http://www.web2py.com/examples/default/support&#x27;), (&lt;lazyT &#x27;Demo&#x27;&gt;, False, &#x27;http://web2py.com/demo_admin&#x27;), (&lt;lazyT &#x27;Quick Examples&#x27;&gt;, False, &#x27;http://web2py.com/examples/default/examples&#x27;), (&lt;lazyT &#x27;FAQ&#x27;&gt;, False, &#x27;http://web2py.com/AlterEgo&#x27;), (&lt;lazyT &#x27;Videos&#x27;&gt;, False, &#x27;http://www.web2py.com/examples/default/videos/&#x27;), (&lt;lazyT &#x27;Free Applications&#x27;&gt;, False, &#x27;http://web2py.com/appliances&#x27;), (&lt;lazyT &#x27;Plugins&#x27;&gt;, False, &#x27;http://web2py.com/plugins&#x27;), (&lt;lazyT &#x27;Layouts&#x27;&gt;, False, &#x27;http://web2py.com/layouts&#x27;), (&lt;lazyT &#x27;Recipes&#x27;&gt;, False, &#x27;http://web2pyslices.com/&#x27;), (&lt;lazyT &#x27;Semantic&#x27;&gt;, False, &#x27;http://web2py.com/semantic&#x27;)]</div></td></tr></table></div></td></tr><tr><td><div><table><tr><td><div>Documentation</div></td></tr><tr><td><div>False</div></td></tr><tr><td><div>http://www.web2py.com/book</div></td></tr><tr><td><div>[(&lt;lazyT &#x27;Preface&#x27;&gt;, False, &#x27;http://www.web2py.com/book/default/chapter/00&#x27;), (&lt;lazyT &#x27;Introduction&#x27;&gt;, False, &#x27;http://www.web2py.com/book/default/chapter/01&#x27;), (&lt;lazyT &#x27;Python&#x27;&gt;, False, &#x27;http://www.web2py.com/book/default/chapter/02&#x27;), (&lt;lazyT &#x27;Overview&#x27;&gt;, False, &#x27;http://www.web2py.com/book/default/chapter/03&#x27;), (&lt;lazyT &#x27;The Core&#x27;&gt;, False, &#x27;http://www.web2py.com/book/default/chapter/04&#x27;), (&lt;lazyT &#x27;The Views&#x27;&gt;, False, &#x27;http://www.web2py.com/book/default/chapter/05&#x27;), (&lt;lazyT &#x27;Database&#x27;&gt;, False, &#x27;http://www.web2py.com/book/default/chapter/06&#x27;), (&lt;lazyT &#x27;Forms and Validators&#x27;&gt;, False, &#x27;http://www.web2py.com/book/default/chapter/07&#x27;), (&lt;lazyT &#x27;Email and SMS&#x27;&gt;, False, &#x27;http://www.web2py.com/book/default/chapter/08&#x27;), (&lt;lazyT &#x27;Access Control&#x27;&gt;, False, &#x27;http://www.web2py.com/book/default/chapter/09&#x27;), (&lt;lazyT &#x27;Services&#x27;&gt;, False, &#x27;http://www.web2py.com/book/default/chapter/10&#x27;), (&lt;lazyT &#x27;Ajax Recipes&#x27;&gt;, False, &#x27;http://www.web2py.com/book/default/chapter/11&#x27;), (&lt;lazyT &#x27;Components and Plugins&#x27;&gt;, False, &#x27;http://www.web2py.com/book/default/chapter/12&#x27;), (&lt;lazyT &#x27;Deployment Recipes&#x27;&gt;, False, &#x27;http://www.web2py.com/book/default/chapter/13&#x27;), (&lt;lazyT &#x27;Other Recipes&#x27;&gt;, False, &#x27;http://www.web2py.com/book/default/chapter/14&#x27;), (&lt;lazyT &#x27;Buy this book&#x27;&gt;, False, &#x27;http://stores.lulu.com/web2py&#x27;)]</div></td></tr></table></div></td></tr><tr><td><div><table><tr><td><div>Community</div></td></tr><tr><td><div>False</div></td></tr><tr><td><div>None</div></td></tr><tr><td><div>[(&lt;lazyT &#x27;Groups&#x27;&gt;, False, &#x27;http://www.web2py.com/examples/default/usergroups&#x27;), (&lt;lazyT &#x27;Twitter&#x27;&gt;, False, &#x27;http://twitter.com/web2py&#x27;), (&lt;lazyT &#x27;Live Chat&#x27;&gt;, False, &#x27;http://webchat.freenode.net/?channels=web2py&#x27;)]</div></td></tr></table></div></td></tr><tr><td><div><table><tr><td><div>Plugins</div></td></tr><tr><td><div>False</div></td></tr><tr><td><div>None</div></td></tr><tr><td><div>[(&#x27;plugin_wiki&#x27;, False, &#x27;http://web2py.com/examples/default/download&#x27;), (&lt;lazyT &#x27;Other Plugins&#x27;&gt;, False, &#x27;http://web2py.com/plugins&#x27;), (&lt;lazyT &#x27;Layout Plugins&#x27;&gt;, False, &#x27;http://web2py.com/layouts&#x27;)]</div></td></tr></table></div></td></tr></table></div></td></tr></table></div></td></tr></table></div></td></tr><tr><td style="font-weight:bold;vertical-align:top">meta</td><td valign="top">:</td><td><div><table><tr><td style="font-weight:bold;vertical-align:top">author</td><td valign="top">:</td><td><div>Evan Caldwell &lt;evancaldwell@yahoo.com&gt;</div></td></tr><tr><td style="font-weight:bold;vertical-align:top">description</td><td valign="top">:</td><td><div>A time clock for SIRI employees</div></td></tr><tr><td style="font-weight:bold;vertical-align:top">generator</td><td valign="top">:</td><td><div>Web2py Web Framework</div></td></tr><tr><td style="font-weight:bold;vertical-align:top">keywords</td><td valign="top">:</td><td><div>SIRI, time, clock</div></td></tr></table></div></td></tr><tr><td style="font-weight:bold;vertical-align:top">models_to_run</td><td valign="top">:</td><td><div><table><tr><td><div>^\\w+\\.py$</div></td></tr><tr><td><div>^timeclock/\\w+\\.py$</div></td></tr><tr><td><div>^timeclock/ask/\\w+\\.py$</div></td></tr></table></div></td></tr><tr><td style="font-weight:bold;vertical-align:top">postprocessing</td><td valign="top">:</td><td><div><table></table></div></td></tr><tr><td style="font-weight:bold;vertical-align:top">session_cookie_expires</td><td valign="top">:</td><td><div>None</div></td></tr><tr><td style="font-weight:bold;vertical-align:top">session_data_name</td><td valign="top">:</td><td><div>session_data_siri_admin</div></td></tr><tr><td style="font-weight:bold;vertical-align:top">session_file</td><td valign="top">:</td><td><div>&lt;open file &#x27;/home/SIRI/web2py/applications/siri_admin/sessions/71.220.151.125-5ca37dcb-b1e7-4f9d-8234-d07fec81a033&#x27;, mode &#x27;rb+&#x27; at 0x3f57150&gt;</div></td></tr><tr><td style="font-weight:bold;vertical-align:top">session_filename</td><td valign="top">:</td><td><div>/home/SIRI/web2py/applications/siri_admin/sessions/71.220.151.125-5ca37dcb-b1e7-4f9d-8234-d07fec81a033</div></td></tr><tr><td style="font-weight:bold;vertical-align:top">session_id</td><td valign="top">:</td><td><div>71.220.151.125-5ca37dcb-b1e7-4f9d-8234-d07fec81a033</div></td></tr><tr><td style="font-weight:bold;vertical-align:top">session_id_name</td><td valign="top">:</td><td><div>session_id_siri_admin</div></td></tr><tr><td style="font-weight:bold;vertical-align:top">session_locked</td><td valign="top">:</td><td><div>True</div></td></tr><tr><td style="font-weight:bold;vertical-align:top">session_new</td><td valign="top">:</td><td><div>False</div></td></tr><tr><td style="font-weight:bold;vertical-align:top">session_storage_type</td><td valign="top">:</td><td><div>file</div></td></tr><tr><td style="font-weight:bold;vertical-align:top">status</td><td valign="top">:</td><td><div>200</div></td></tr><tr><td style="font-weight:bold;vertical-align:top">subtitle</td><td valign="top">:</td><td><div>customize me!</div></td></tr><tr><td style="font-weight:bold;vertical-align:top">title</td><td valign="top">:</td><td><div>SIRI Admin</div></td></tr><tr><td style="font-weight:bold;vertical-align:top">view</td><td valign="top">:</td><td><div>timeclock/ask.load</div></td></tr></table></div>'
tRp169
sS'locals'
p170
(dp171
S'encrypt'
p172
S'True'
p173
sS'sender'
p174
S"'e.caldwell@sirinstitute.org'"
p175
sS'encoding'
p176
S"'utf-8'"
p177
sS'cc'
p178
S'None'
p179
sS'text'
p180
S'None'
p181
sS'self'
p182
S'<gluon.tools.Mail object>'
p183
sS'attachments'
p184
S'None'
p185
sS'sign_passphrase'
p186
S'None'
p187
sS'cipher_type'
p188
S'None'
p189
sS'sign'
p190
g173
sS'headers'
p191
g45
sS'raw'
p192
S'False'
p193
sS'html'
p194
S'None'
p195
sS'bcc'
p196
S'None'
p197
sS'encoded_or_raw'
p198
S'<function encoded_or_raw>'
p199
sS'reply_to'
p200
S'None'
p201
sS'message'
p202
S'None'
p203
sS'subject'
p204
S"'from evancaldwell@yahoo.com'"
p205
sS'to'
p206
S"['e.caldwell@sirinstitute.org']"
p207
sS'encode_header'
p208
S'<function encode_header>'
p209
sssS'traceback'
p210
S'Traceback (most recent call last):\n  File "/home/SIRI/web2py/gluon/restricted.py", line 212, in restricted\n    exec ccode in environment\n  File "/home/SIRI/web2py/applications/siri_admin/controllers/timeclock.py", line 282, in <module>\n  File "/home/SIRI/web2py/gluon/globals.py", line 194, in <lambda>\n    self._caller = lambda f: f()\n  File "/home/SIRI/web2py/applications/siri_admin/controllers/timeclock.py", line 38, in ask\n    message = form.vars.question):\n  File "/home/SIRI/web2py/gluon/tools.py", line 654, in send\n    payload = payload_in\nUnboundLocalError: local variable \'payload_in\' referenced before assignment\n'
p211
s.