(dp1
S'output'
p2
S"<class 'gspread.exceptions.UpdateCellError'> It looks like someone else already deleted this cell."
p3
sS'layer'
p4
S'/home/SIRI/web2py/applications/siri_admin/controllers/default.py'
p5
sS'code'
p6
S'# -*- coding: utf-8 -*-\n# this file is released under public domain and you can use without limitations\n\n#########################################################################\n## This is a sample controller\n## - index is the default action of any application\n## - user is required for authentication and authorization\n## - download is for downloading files uploaded in the db (does streaming)\n## - call exposes all registered services (none by default)\n#########################################################################\n\n\ndef index():\n    """\n    example action using the internationalization operator T and flash\n    rendered by views/default/index.html or views/generic.html\n\n    if you need a simple wiki simple replace the two lines below with:\n    return auth.wiki()\n    """\n    response.flash = T("Welcome to web2py!")\n    return dict(message=T(\'Hello World\'))\n\n\ndef user():\n    """\n    exposes:\n    http://..../[app]/default/user/login\n    http://..../[app]/default/user/logout\n    http://..../[app]/default/user/register\n    http://..../[app]/default/user/profile\n    http://..../[app]/default/user/retrieve_password\n    http://..../[app]/default/user/change_password\n    http://..../[app]/default/user/manage_users (requires membership in\n    use @auth.requires_login()\n        @auth.requires_membership(\'group name\')\n        @auth.requires_permission(\'read\',\'table name\',record_id)\n    to decorate functions that need access control\n    """\n    return dict(form=auth())\n\n@cache.action()\ndef download():\n    """\n    allows downloading of uploaded files\n    http://..../[app]/default/download/[filename]\n    """\n    return response.download(request, db)\n\n\ndef call():\n    """\n    exposes services. for example:\n    http://..../[app]/default/call/jsonrpc\n    decorate with @services.jsonrpc the functions to expose\n    supports xml, json, xmlrpc, jsonrpc, amfrpc, rss, csv\n    """\n    return service()\n\n\n@auth.requires_signature()\ndef data():\n    """\n    http://..../[app]/default/data/tables\n    http://..../[app]/default/data/create/[table]\n    http://..../[app]/default/data/read/[table]/[id]\n    http://..../[app]/default/data/update/[table]/[id]\n    http://..../[app]/default/data/delete/[table]/[id]\n    http://..../[app]/default/data/select/[table]\n    http://..../[app]/default/data/search/[table]\n    but URLs must be signed, i.e. linked with\n      A(\'table\',_href=URL(\'data/tables\',user_signature=True))\n    or with the signed load operator\n      LOAD(\'default\',\'data.load\',args=\'tables\',ajax=True,user_signature=True)\n    """\n    return dict(form=crud())\n\n\n###############################\n## custom general functions\n###############################\n\n@auth.requires_login()\ndef displayusers():\n    """\n    Shows the list of users\n    """\n    response.flash = \'This page shows a list of users\'\n    query = (db.auth_user)\n    users = db(query).select()\n    return dict(users = users)\n\n\n###############################\n## custom time clock functions\n###############################\n\n@auth.requires_login()\ndef mainpage():\n    """\n    this will become the index page\n    """\n    fields = [\'project\',\'work_date\',\'time_in\',\'time_out\',\'description\']\n    form = SQLFORM(db.timeclock, submit_button = \'Submit Hours\', fields = fields)\n    if form.process(onvalidation=calcHours).accepted:\n        response.flash = \'Thank you for submitting your time \' + str(form.vars.hours)\n    elif form.errors:\n        response.flash = \'There was an error on the form\'\n    else:\n        response.flash = \'Welcome \' + session.auth.user.first_name + \' your id is: \' + str(session.auth.user.id)\n    response.title = \'Welcome \' + session.auth.user.first_name\n    response.subtitle = \'please review your time or fill out the form below to add time\'\n\n    query = (db.timeclock.usr_id == session.auth.user.id)\n    clockEntries = db(query).select()\n    totalHours = 0\n    for entry in clockEntries:\n        totalHours += float(entry.hours)\n    return dict(form=form, clockEntries=clockEntries, totalHours = totalHours)\n\ndef calcHours(form):\n    hourDiff = int(form.vars.time_out[0:2]) - int(form.vars.time_in[0:2])\n    minDiff = (int(form.vars.time_out[3:5]) - int(form.vars.time_in[3:5]))/60.0\n    form.vars.hours = hourDiff + minDiff\n\n@auth.requires_login()\ndef clockadmin():\n    adminMenu = MENU([[\'Manage Projects\', False, URL(manageprojects)],[\'Manage Users\', False, URL(manageusers)],[\'Manage Groups\', False, URL(managegroups)]])\n\n    query = (db.auth_user.id == auth_membership.id)\n    users = db(query).select()\n    projects = db(db.siri_projects).select()\n    groups = db(db.auth_group).select()\n\n    response.title = \'SIRI Administration\'\n    response.subtitle = \'Manage, edit or add users, groups and projects\'\n    return dict(adminMenu=adminMenu, users=users, projects=projects, groups=groups)\n\n@auth.requires_login()\ndef manageprojects():\n    adminMenu = MENU([[\'Admin Home\', False, URL(clockadmin)],[\'Manage Users\', False, URL(manageusers)],[\'Manage Groups\', False, URL(managegroups)]])\n    form = SQLFORM(db.siri_projects)\n    if form.process().accepted:\n        response.flash = \'Thank you for submitting a new project\'\n    elif form.errors:\n        response.flash = \'There was an error on the form\'\n    else:\n        response.flash = \'Welcome \' + session.auth.user.first_name + \' your id is: \' + str(session.auth.user.id)\n    projects = db(db.siri_projects).select()\n\n    return dict(form=form, projects=projects, adminMenu=adminMenu)\n\n@auth.requires_login()\ndef editproject():\n    record = db.siri_projects(request.args(0)) or redirect(URL(\'clockadmin\'))\n    form = SQLFORM(db.siri_projects, record)\n    if form.process(next=\'manageprojects\').accepted:\n        response.flash = \'Thank you, the project has been updated\'\n    elif form.errors:\n        response.flash = \'There was an error on the form\'\n    else:\n        response.flash = \'Please update the project info\'\n    return dict(form=form)\n\n@auth.requires_login()\ndef managegroups():\n    adminMenu = MENU([[\'Admin Home\', False, URL(clockadmin)],[\'Manage Projects\', False, URL(manageprojects)],[\'Manage Users\', False, URL(manageusers)]])\n    groups = db(db.auth_group).select()\n\n    return dict(groupList=groups)\n\n@auth.requires_login()\ndef manageusers():\n    adminMenu = MENU([[\'Admin Home\', False, URL(clockadmin)],[\'Manage Projects\', False, URL(manageprojects)],[\'Manage Groups\', False, URL(managegroups)]])\n    userFilter = MENU([[],[]])\n    users = db(db.auth_user).select()\n    form = SQLFORM(db.auth_user)\n    if form.process().accepted:\n        response.flash = \'Thank you for adding a new user, be sure to let them know their temporary password\'\n    elif form.errors:\n        response.flash = \'There was an error on the form\'\n    else:\n        response.flash = \'Welcome \' + session.auth.user.first_name + \' feel free to edit or add users\'\n\n    return dict(users=users, form=form, adminMenu=adminMenu)\n\n@auth.requires_login()\ndef edituser():\n    record = db.auth_user(request.args(0)) or redirect(URL(\'clockadmin\'))\n    form = SQLFORM(db.auth_user, record)\n    if form.process(next=\'manageusers\').accepted:  #**** need to next to referring page\n        response.flash = \'Thank you, the user has been updated\'\n    elif form.errors:\n        response.flash = \'There was an error on the form\'\n    else:\n        response.flash = \'Please update the user info\'\n    return dict(form=form)\n\n@auth.requires_login()\ndef addtime():\n    """\n    Allows a loggedin user to add an entry for time worked\n    """\n    form = SQLFORM(db.timeclock)\n    if form.process().accepted:\n        response.flash = \'Thank you for submitting your time\'\n    elif form.errors:\n        response.flash = \'There was an error on the form\'\n    else:\n        response.flash = \'Welcome \' + session.auth.user.first_name + \' your id is: \' + str(session.auth.user.id)\n    response.title = \'New Entry\'\n    response.subtitle = \'please fill out the form below\'\n    hoursTest = type(db.timeclock.time_in)\n    return dict(form=form, hoursTest=hoursTest)\n\n@auth.requires_login()\ndef displaytime():\n    """\n    Shows the entries for the user that is logged in\n    """\n    response.flash = \'This page shows your entries\'\n    query = (db.timeclock.usr_id == session.auth.user.id)\n    # query = (db.timeclock)\n    # set = db(query)\n    # rows = set.select()\n    # row = rows[0]\n    # print str(rows)\n    clockEntries = db(query).select()\n    return dict(clockEntries = clockEntries)\n\ndef gdatatest():\n    """\n    testing integration with Google\n    """\n\n    gemail = \'dawg3tt@gmail.com\'\n    gpwd = \'mol090901!\'\n\n    # ############ get docs list example #################################################\n    # # Create a client class which will make HTTP requests with Google Docs server.\n    # gdocsClient = gdata.docs.service.DocsService()\n    # # Authenticate using your Google Docs email address and password.\n    # gdocsClient.email = gemail\n    # gdocsClient.password = gpwd\n    # gdocsClient.source = \'SIRI Admin\'\n    # gdocsClient.ProgrammaticLogin()\n    # # Query the server for an Atom feed containing a list of your documents.\n    # docsFeed = gdocsClient.GetDocumentListFeed()\n    # ####################################################################################\n    \n    # return dict(docsFeed=docsFeed)\n\ndef gspreadtest():\n    gc = gspread.login(\'dawg3tt@gmail.com\', \'mol090901!\')\n    wks = gc.open("web2py_tester").sheet1\n    wks.update_cell(1,1, \'invoice_1\')\n    cell_list = wks.range(\'A16:E30\')\n    for cell in cell_list:\n        cell.value = 0\n\n    query = (db.timeclock.project == \'DDM\')\n    clockEntries = db(query).select()\n\n    idx = 16\n    # for entry in clockEntries:\n    #     wks.update_cell(1, idx, entry.work_date)\n    #     wks.update_cell(2, idx, entry.description)\n    #     wks.update_cell(3, idx, entry.hours)\n    #     idx += 1\n    wks.update_cell(1, idx, \'today\')\n    wks.update_cell(2, idx, \'description\')\n    wks.update_cell(2, idx, 8)\n\n    return dict(cell_list=cell_list, clockEntries=clockEntries)\n\n#################################\n## custom FamilySearch functions\n#################################\n\ndef fsapply():\n    """\n    Allows interested students to apply for the opportunity\n    """\n    form = SQLFORM(db.fs_prospects,fields = [\'interested_location\',\'interested_dates\',\'language_level\',\'referred_by\',\'resume\'])\n    if form.process().accepted:\n        response.flash = \'Thank you, we will keep you updated about this and future opportunities\'\n    elif form.errors:\n        response.flash = \'There was an error on the form\'\n    else:\n        response.flash = \'Welcome, please fill out the information below\'\n    return dict(form=form)\n\ndef fsregister():\n    """\n    Allows approved prospects to register for their project\n    """\n    form = SQLFORM(db.fs_students, fields = [\'opp_location\',\'internship\',\'training_hotel\',\'birthday\',\'emergency_name\',\'emergency_phone\'])\n    if form.process().accepted: #**** next=fsoverview - directs user to an overview page\n        response.flash = \'Thank you, we will be making arrangements for your trip\'\n    elif form.errors:\n        response.flash = \'There was an error on the form\'\n    else:\n        response.flash = \'Welcome, please fill out the information below\'\n    return dict(form=form)\n\ndef fsstudentupdate():\n    """\n    Allows administration to fill out or update additional information about the student\n    """\n    record = db.fs_students(request.args(0)) or redirect(URL(\'index\'))\n    form = SQLFORM(db.fs_students, record)\n    if form.process(next=\'fsshowstudents\').accepted:\n        response.flash = \'Thank you, the student has been updated\'\n    elif form.errors:\n        response.flash = \'There was an error on the form\'\n    else:\n        response.flash = \'Please update the students info\'\n    return dict(form=form)\n\ndef fsshowstudents():\n    """\n    Shows a list of all students\n    **** need to figure out how to filter it\n    """\n    response.flash = \'Please choose a student to edit\'\n    query = (db.fs_students)\n    students = db(query).select()\n    return dict(students = students)\n\nresponse._vars=response._caller(gspreadtest)\n'
p7
sS'snapshot'
p8
(dp9
S'exception'
p10
(dp11
S'__module__'
p12
S"'gspread.exceptions'"
p13
sS'__getslice__'
p14
S"<method-wrapper '__getslice__' of UpdateCellError object>"
p15
sS'__str__'
p16
S"<method-wrapper '__str__' of UpdateCellError object>"
p17
sS'__reduce__'
p18
S'<built-in method __reduce__ of UpdateCellError object>'
p19
sS'__dict__'
p20
S'{}'
p21
sS'__sizeof__'
p22
S'<built-in method __sizeof__ of UpdateCellError object>'
p23
sS'__weakref__'
p24
S'None'
p25
sS'__init__'
p26
S"<method-wrapper '__init__' of UpdateCellError object>"
p27
sS'__setattr__'
p28
S"<method-wrapper '__setattr__' of UpdateCellError object>"
p29
sS'__reduce_ex__'
p30
S'<built-in method __reduce_ex__ of UpdateCellError object>'
p31
sS'__new__'
p32
S'<built-in method __new__ of type object>'
p33
sS'__format__'
p34
S'<built-in method __format__ of UpdateCellError object>'
p35
sS'__class__'
p36
S"<class 'gspread.exceptions.UpdateCellError'>"
p37
sS'__doc__'
p38
S'"Error while setting cell\'s value."'
p39
sS'__getitem__'
p40
S"<method-wrapper '__getitem__' of UpdateCellError object>"
p41
sS'__setstate__'
p42
S'<built-in method __setstate__ of UpdateCellError object>'
p43
sS'__getattribute__'
p44
S"<method-wrapper '__getattribute__' of UpdateCellError object>"
p45
sS'args'
p46
S"(u'It looks like someone else already deleted this cell.',)"
p47
sS'__subclasshook__'
p48
S'<built-in method __subclasshook__ of type object>'
p49
sS'__unicode__'
p50
S'<built-in method __unicode__ of UpdateCellError object>'
p51
sS'__delattr__'
p52
S"<method-wrapper '__delattr__' of UpdateCellError object>"
p53
sS'__repr__'
p54
S"<method-wrapper '__repr__' of UpdateCellError object>"
p55
sS'__hash__'
p56
S"<method-wrapper '__hash__' of UpdateCellError object>"
p57
ssS'evalue'
p58
S'It looks like someone else already deleted this cell.'
p59
sS'request'
p60
cgluon.html
XML_unpickle
p61
(S's\xaf`\x00\x00<div><table><tr><td style="font-weight:bold;vertical-align:top">ajax</td><td valign="top">:</td><td><div>False</div></td></tr><tr><td style="font-weight:bold;vertical-align:top">application</td><td valign="top">:</td><td><div>siri_admin</div></td></tr><tr><td style="font-weight:bold;vertical-align:top">args</td><td valign="top">:</td><td><div><table></table></div></td></tr><tr><td style="font-weight:bold;vertical-align:top">body</td><td valign="top">:</td><td><div>&lt;cStringIO.StringO object at 0x3b4dc70&gt;</div></td></tr><tr><td style="font-weight:bold;vertical-align:top">cid</td><td valign="top">:</td><td><div>None</div></td></tr><tr><td style="font-weight:bold;vertical-align:top">client</td><td valign="top">:</td><td><div>192.225.182.66</div></td></tr><tr><td style="font-weight:bold;vertical-align:top">controller</td><td valign="top">:</td><td><div>default</div></td></tr><tr><td style="font-weight:bold;vertical-align:top">cookies</td><td valign="top">:</td><td><div><table><tr><td style="font-weight:bold;vertical-align:top">session_data_examples</td><td valign="top">:</td><td><div>c8bb9c561ef9a9d9533cc07f32cc3793:sRy766YUeNT3CFfDaQKF3ldlXcw1MjYLwT15PgXg7AlV6ZAppInKm_oOMpvERpDbqGgy3pk35OMmWBgjAkkEnpbuTx94qX5xFfym9HvoCnY2xMruT-wzrc4cDnIwkR6zhieLsV14z1PwldaH0BNDnxFNEh7WkZXx8RANvkJENL2uE-2dty9OzmjZxvNj5Vd2_z98VLHp2UyPMDBNuHFjyw4_pKY-P5AzUV1gMUoxl52SWg3Lfsg2uIXC82wIOIBOfaLgjUPRQ91JrMw4MULdF014uJpuHoejJ3AqRe2-4QoZOexfwUtxpRRXig-14Y77Fa1C17WvSO72JOOcqXbKAJ64PAcQxlsxyXPY2fUyxeA=<table><tr><td style="font-weight:bold;vertical-align:top">comment</td><td valign="top">:</td><td><div></div></td></tr><tr><td style="font-weight:bold;vertical-align:top">domain</td><td valign="top">:</td><td><div></div></td></tr><tr><td style="font-weight:bold;vertical-align:top">expires</td><td valign="top">:</td><td><div></div></td></tr><tr><td style="font-weight:bold;vertical-align:top">httponly</td><td valign="top">:</td><td><div></div></td></tr><tr><td style="font-weight:bold;vertical-align:top">max-age</td><td valign="top">:</td><td><div></div></td></tr><tr><td style="font-weight:bold;vertical-align:top">path</td><td valign="top">:</td><td><div></div></td></tr><tr><td style="font-weight:bold;vertical-align:top">secure</td><td valign="top">:</td><td><div></div></td></tr><tr><td style="font-weight:bold;vertical-align:top">version</td><td valign="top">:</td><td><div></div></td></tr></table></div></td></tr><tr><td style="font-weight:bold;vertical-align:top">session_id_admin</td><td valign="top">:</td><td><div>192.225.182.66-606d5bea-b20a-4cc9-a454-1f08b1da05c8<table><tr><td style="font-weight:bold;vertical-align:top">comment</td><td valign="top">:</td><td><div></div></td></tr><tr><td style="font-weight:bold;vertical-align:top">domain</td><td valign="top">:</td><td><div></div></td></tr><tr><td style="font-weight:bold;vertical-align:top">expires</td><td valign="top">:</td><td><div></div></td></tr><tr><td style="font-weight:bold;vertical-align:top">httponly</td><td valign="top">:</td><td><div></div></td></tr><tr><td style="font-weight:bold;vertical-align:top">max-age</td><td valign="top">:</td><td><div></div></td></tr><tr><td style="font-weight:bold;vertical-align:top">path</td><td valign="top">:</td><td><div></div></td></tr><tr><td style="font-weight:bold;vertical-align:top">secure</td><td valign="top">:</td><td><div></div></td></tr><tr><td style="font-weight:bold;vertical-align:top">version</td><td valign="top">:</td><td><div></div></td></tr></table></div></td></tr><tr><td style="font-weight:bold;vertical-align:top">session_id_siri_admin</td><td valign="top">:</td><td><div>192.225.182.66-eb5b6931-e9ed-4335-a4be-5039afceecbf<table><tr><td style="font-weight:bold;vertical-align:top">comment</td><td valign="top">:</td><td><div></div></td></tr><tr><td style="font-weight:bold;vertical-align:top">domain</td><td valign="top">:</td><td><div></div></td></tr><tr><td style="font-weight:bold;vertical-align:top">expires</td><td valign="top">:</td><td><div></div></td></tr><tr><td style="font-weight:bold;vertical-align:top">httponly</td><td valign="top">:</td><td><div></div></td></tr><tr><td style="font-weight:bold;vertical-align:top">max-age</td><td valign="top">:</td><td><div></div></td></tr><tr><td style="font-weight:bold;vertical-align:top">path</td><td valign="top">:</td><td><div></div></td></tr><tr><td style="font-weight:bold;vertical-align:top">secure</td><td valign="top">:</td><td><div></div></td></tr><tr><td style="font-weight:bold;vertical-align:top">version</td><td valign="top">:</td><td><div></div></td></tr></table></div></td></tr><tr><td style="font-weight:bold;vertical-align:top">session_id_sra</td><td valign="top">:</td><td><div>192.225.182.66-979b82b2-4dd9-4ed1-a0cd-17e904e37d0d<table><tr><td style="font-weight:bold;vertical-align:top">comment</td><td valign="top">:</td><td><div></div></td></tr><tr><td style="font-weight:bold;vertical-align:top">domain</td><td valign="top">:</td><td><div></div></td></tr><tr><td style="font-weight:bold;vertical-align:top">expires</td><td valign="top">:</td><td><div></div></td></tr><tr><td style="font-weight:bold;vertical-align:top">httponly</td><td valign="top">:</td><td><div></div></td></tr><tr><td style="font-weight:bold;vertical-align:top">max-age</td><td valign="top">:</td><td><div></div></td></tr><tr><td style="font-weight:bold;vertical-align:top">path</td><td valign="top">:</td><td><div></div></td></tr><tr><td style="font-weight:bold;vertical-align:top">secure</td><td valign="top">:</td><td><div></div></td></tr><tr><td style="font-weight:bold;vertical-align:top">version</td><td valign="top">:</td><td><div></div></td></tr></table></div></td></tr><tr><td style="font-weight:bold;vertical-align:top">session_id_welcome</td><td valign="top">:</td><td><div>192.225.182.66-17faf919-c419-40fe-9c71-658d3174ff01<table><tr><td style="font-weight:bold;vertical-align:top">comment</td><td valign="top">:</td><td><div></div></td></tr><tr><td style="font-weight:bold;vertical-align:top">domain</td><td valign="top">:</td><td><div></div></td></tr><tr><td style="font-weight:bold;vertical-align:top">expires</td><td valign="top">:</td><td><div></div></td></tr><tr><td style="font-weight:bold;vertical-align:top">httponly</td><td valign="top">:</td><td><div></div></td></tr><tr><td style="font-weight:bold;vertical-align:top">max-age</td><td valign="top">:</td><td><div></div></td></tr><tr><td style="font-weight:bold;vertical-align:top">path</td><td valign="top">:</td><td><div></div></td></tr><tr><td style="font-weight:bold;vertical-align:top">secure</td><td valign="top">:</td><td><div></div></td></tr><tr><td style="font-weight:bold;vertical-align:top">version</td><td valign="top">:</td><td><div></div></td></tr></table></div></td></tr><tr><td style="font-weight:bold;vertical-align:top">sessionid</td><td valign="top">:</td><td><div>f45fd9f6eb9052cddcc8c325b52e3326<table><tr><td style="font-weight:bold;vertical-align:top">comment</td><td valign="top">:</td><td><div></div></td></tr><tr><td style="font-weight:bold;vertical-align:top">domain</td><td valign="top">:</td><td><div></div></td></tr><tr><td style="font-weight:bold;vertical-align:top">expires</td><td valign="top">:</td><td><div></div></td></tr><tr><td style="font-weight:bold;vertical-align:top">httponly</td><td valign="top">:</td><td><div></div></td></tr><tr><td style="font-weight:bold;vertical-align:top">max-age</td><td valign="top">:</td><td><div></div></td></tr><tr><td style="font-weight:bold;vertical-align:top">path</td><td valign="top">:</td><td><div></div></td></tr><tr><td style="font-weight:bold;vertical-align:top">secure</td><td valign="top">:</td><td><div></div></td></tr><tr><td style="font-weight:bold;vertical-align:top">version</td><td valign="top">:</td><td><div></div></td></tr></table></div></td></tr></table></div></td></tr><tr><td style="font-weight:bold;vertical-align:top">env</td><td valign="top">:</td><td><div><table><tr><td style="font-weight:bold;vertical-align:top">app_folders</td><td valign="top">:</td><td><div>set([&#x27;/home/SIRI/web2py/applications/siri_admin/&#x27;, &#x27;/home/SIRI/web2py/applications/admin/&#x27;])</div></td></tr><tr><td style="font-weight:bold;vertical-align:top">applications_parent</td><td valign="top">:</td><td><div>/home/SIRI/web2py</div></td></tr><tr><td style="font-weight:bold;vertical-align:top">content_length</td><td valign="top">:</td><td><div></div></td></tr><tr><td style="font-weight:bold;vertical-align:top">content_type</td><td valign="top">:</td><td><div></div></td></tr><tr><td style="font-weight:bold;vertical-align:top">db_sessions</td><td valign="top">:</td><td><div>set([])</div></td></tr><tr><td style="font-weight:bold;vertical-align:top">debugging</td><td valign="top">:</td><td><div>False</div></td></tr><tr><td style="font-weight:bold;vertical-align:top">document_root</td><td valign="top">:</td><td><div>/var/log/nginx/user_logs</div></td></tr><tr><td style="font-weight:bold;vertical-align:top">gluon_parent</td><td valign="top">:</td><td><div>/home/SIRI/web2py</div></td></tr><tr><td style="font-weight:bold;vertical-align:top">http_accept</td><td valign="top">:</td><td><div>text/html,application/xhtml+xml,application/xml;q=0.9,*/*;q=0.8</div></td></tr><tr><td style="font-weight:bold;vertical-align:top">http_accept_encoding</td><td valign="top">:</td><td><div>gzip, deflate</div></td></tr><tr><td style="font-weight:bold;vertical-align:top">http_accept_language</td><td valign="top">:</td><td><div>en-US,en;q=0.5</div></td></tr><tr><td style="font-weight:bold;vertical-align:top">http_cache_control</td><td valign="top">:</td><td><div>max-age=0</div></td></tr><tr><td style="font-weight:bold;vertical-align:top">http_connection</td><td valign="top">:</td><td><div>close</div></td></tr><tr><td style="font-weight:bold;vertical-align:top">http_cookie</td><td valign="top">:</td><td><div>__utma=133430031.1333926040.1377126199.1377890758.1377896458.12; __utmz=133430031.1377213648.6.2.utmcsr=google|utmccn=(organic)|utmcmd=organic|utmctr=(not%20provided); session_data_examples=&quot;c8bb9c561ef9a9d9533cc07f32cc3793:sRy766YUeNT3CFfDaQKF3ldlXcw1MjYLwT15PgXg7AlV6ZAppInKm_oOMpvERpDbqGgy3pk35OMmWBgjAkkEnpbuTx94qX5xFfym9HvoCnY2xMruT-wzrc4cDnIwkR6zhieLsV14z1PwldaH0BNDnxFNEh7WkZXx8RANvkJENL2uE-2dty9OzmjZxvNj5Vd2_z98VLHp2UyPMDBNuHFjyw4_pKY-P5AzUV1gMUoxl52SWg3Lfsg2uIXC82wIOIBOfaLgjUPRQ91JrMw4MULdF014uJpuHoejJ3AqRe2-4QoZOexfwUtxpRRXig-14Y77Fa1C17WvSO72JOOcqXbKAJ64PAcQxlsxyXPY2fUyxeA=&quot;; session_id_siri_admin=192.225.182.66-eb5b6931-e9ed-4335-a4be-5039afceecbf; session_id_welcome=192.225.182.66-17faf919-c419-40fe-9c71-658d3174ff01; session_id_sra=192.225.182.66-979b82b2-4dd9-4ed1-a0cd-17e904e37d0d; session_id_admin=192.225.182.66-606d5bea-b20a-4cc9-a454-1f08b1da05c8; __utmc=133430031; sessionid=f45fd9f6eb9052cddcc8c325b52e3326</div></td></tr><tr><td style="font-weight:bold;vertical-align:top">http_host</td><td valign="top">:</td><td><div>siri.pythonanywhere.com</div></td></tr><tr><td style="font-weight:bold;vertical-align:top">http_user_agent</td><td valign="top">:</td><td><div>Mozilla/5.0 (Windows NT 6.1; WOW64; rv:23.0) Gecko/20100101 Firefox/23.0</div></td></tr><tr><td style="font-weight:bold;vertical-align:top">http_x_forwarded_for</td><td valign="top">:</td><td><div>192.225.182.66</div></td></tr><tr><td style="font-weight:bold;vertical-align:top">http_x_real_ip</td><td valign="top">:</td><td><div>192.225.182.66</div></td></tr><tr><td style="font-weight:bold;vertical-align:top">https</td><td valign="top">:</td><td><div>on</div></td></tr><tr><td style="font-weight:bold;vertical-align:top">is_jython</td><td valign="top">:</td><td><div>False</div></td></tr><tr><td style="font-weight:bold;vertical-align:top">is_pypy</td><td valign="top">:</td><td><div>False</div></td></tr><tr><td style="font-weight:bold;vertical-align:top">local_hosts</td><td valign="top">:</td><td><div><table><tr><td><div>::ffff:127.0.0.1</div></td></tr><tr><td><div>::1</div></td></tr><tr><td><div>50.19.109.98</div></td></tr><tr><td><div>127.0.0.1</div></td></tr><tr><td><div>glenn-liveweb2</div></td></tr><tr><td><div>siri.pythonanywhere.com</div></td></tr><tr><td><div>localhost</div></td></tr></table></div></td></tr><tr><td style="font-weight:bold;vertical-align:top">path_info</td><td valign="top">:</td><td><div>/siri_admin/default/gspreadtest</div></td></tr><tr><td style="font-weight:bold;vertical-align:top">query_string</td><td valign="top">:</td><td><div></div></td></tr><tr><td style="font-weight:bold;vertical-align:top">remote_addr</td><td valign="top">:</td><td><div>10.87.22.48</div></td></tr><tr><td style="font-weight:bold;vertical-align:top">remote_port</td><td valign="top">:</td><td><div>46438</div></td></tr><tr><td style="font-weight:bold;vertical-align:top">request_method</td><td valign="top">:</td><td><div>GET</div></td></tr><tr><td style="font-weight:bold;vertical-align:top">request_uri</td><td valign="top">:</td><td><div>/siri_admin/default/gspreadtest</div></td></tr><tr><td style="font-weight:bold;vertical-align:top">script_name</td><td valign="top">:</td><td><div></div></td></tr><tr><td style="font-weight:bold;vertical-align:top">server_name</td><td valign="top">:</td><td><div>siri.pythonanywhere.com</div></td></tr><tr><td style="font-weight:bold;vertical-align:top">server_port</td><td valign="top">:</td><td><div>443</div></td></tr><tr><td style="font-weight:bold;vertical-align:top">server_protocol</td><td valign="top">:</td><td><div>HTTP/1.1</div></td></tr><tr><td style="font-weight:bold;vertical-align:top">uwsgi_node</td><td valign="top">:</td><td><div>glenn-liveweb2</div></td></tr><tr><td style="font-weight:bold;vertical-align:top">uwsgi_version</td><td valign="top">:</td><td><div>1.9.12</div></td></tr><tr><td style="font-weight:bold;vertical-align:top">web2py_path</td><td valign="top">:</td><td><div>/home/SIRI/web2py</div></td></tr><tr><td style="font-weight:bold;vertical-align:top">web2py_version</td><td valign="top">:</td><td><div>2.5.1-stable+timestamp.2013.06.06.15.39.19</div></td></tr><tr><td style="font-weight:bold;vertical-align:top">wsgi_errors</td><td valign="top">:</td><td><div>&lt;uwsgi_file__bin_user_wsgi_wrapper.ErrorLogWrapper object at 0x2071650&gt;</div></td></tr><tr><td style="font-weight:bold;vertical-align:top">wsgi_file_wrapper</td><td valign="top">:</td><td><div>&lt;built-in function uwsgi_sendfile&gt;</div></td></tr><tr><td style="font-weight:bold;vertical-align:top">wsgi_input</td><td valign="top">:</td><td><div>&lt;uwsgi._Input object at 0x7f1d004fe708&gt;</div></td></tr><tr><td style="font-weight:bold;vertical-align:top">wsgi_multiprocess</td><td valign="top">:</td><td><div>True</div></td></tr><tr><td style="font-weight:bold;vertical-align:top">wsgi_multithread</td><td valign="top">:</td><td><div>False</div></td></tr><tr><td style="font-weight:bold;vertical-align:top">wsgi_run_once</td><td valign="top">:</td><td><div>False</div></td></tr><tr><td style="font-weight:bold;vertical-align:top">wsgi_url_scheme</td><td valign="top">:</td><td><div>https</div></td></tr><tr><td style="font-weight:bold;vertical-align:top">wsgi_version</td><td valign="top">:</td><td><div><table><tr><td><div>1</div></td></tr><tr><td><div>0</div></td></tr></table></div></td></tr></table></div></td></tr><tr><td style="font-weight:bold;vertical-align:top">extension</td><td valign="top">:</td><td><div>html</div></td></tr><tr><td style="font-weight:bold;vertical-align:top">folder</td><td valign="top">:</td><td><div>/home/SIRI/web2py/applications/siri_admin/</div></td></tr><tr><td style="font-weight:bold;vertical-align:top">function</td><td valign="top">:</td><td><div>gspreadtest</div></td></tr><tr><td style="font-weight:bold;vertical-align:top">get_vars</td><td valign="top">:</td><td><div><table></table></div></td></tr><tr><td style="font-weight:bold;vertical-align:top">global_settings</td><td valign="top">:</td><td><div><table><tr><td style="font-weight:bold;vertical-align:top">app_folders</td><td valign="top">:</td><td><div>set([&#x27;/home/SIRI/web2py/applications/siri_admin/&#x27;, &#x27;/home/SIRI/web2py/applications/admin/&#x27;])</div></td></tr><tr><td style="font-weight:bold;vertical-align:top">applications_parent</td><td valign="top">:</td><td><div>/home/SIRI/web2py</div></td></tr><tr><td style="font-weight:bold;vertical-align:top">db_sessions</td><td valign="top">:</td><td><div>set([])</div></td></tr><tr><td style="font-weight:bold;vertical-align:top">debugging</td><td valign="top">:</td><td><div>False</div></td></tr><tr><td style="font-weight:bold;vertical-align:top">gluon_parent</td><td valign="top">:</td><td><div>/home/SIRI/web2py</div></td></tr><tr><td style="font-weight:bold;vertical-align:top">is_jython</td><td valign="top">:</td><td><div>False</div></td></tr><tr><td style="font-weight:bold;vertical-align:top">is_pypy</td><td valign="top">:</td><td><div>False</div></td></tr><tr><td style="font-weight:bold;vertical-align:top">local_hosts</td><td valign="top">:</td><td><div><table><tr><td><div>::ffff:127.0.0.1</div></td></tr><tr><td><div>::1</div></td></tr><tr><td><div>50.19.109.98</div></td></tr><tr><td><div>127.0.0.1</div></td></tr><tr><td><div>glenn-liveweb2</div></td></tr><tr><td><div>siri.pythonanywhere.com</div></td></tr><tr><td><div>localhost</div></td></tr></table></div></td></tr><tr><td style="font-weight:bold;vertical-align:top">web2py_version</td><td valign="top">:</td><td><div>2.5.1-stable+timestamp.2013.06.06.15.39.19</div></td></tr></table></div></td></tr><tr><td style="font-weight:bold;vertical-align:top">is_https</td><td valign="top">:</td><td><div>True</div></td></tr><tr><td style="font-weight:bold;vertical-align:top">is_local</td><td valign="top">:</td><td><div>False</div></td></tr><tr><td style="font-weight:bold;vertical-align:top">is_restful</td><td valign="top">:</td><td><div>False</div></td></tr><tr><td style="font-weight:bold;vertical-align:top">now</td><td valign="top">:</td><td><div>datetime.datetime(2013, 9, 3, 23, 8, 37, 949022)</div></td></tr><tr><td style="font-weight:bold;vertical-align:top">post_vars</td><td valign="top">:</td><td><div><table></table></div></td></tr><tr><td style="font-weight:bold;vertical-align:top">raw_args</td><td valign="top">:</td><td><div></div></td></tr><tr><td style="font-weight:bold;vertical-align:top">raw_extension</td><td valign="top">:</td><td><div>None</div></td></tr><tr><td style="font-weight:bold;vertical-align:top">url</td><td valign="top">:</td><td><div>/siri_admin/default/gspreadtest</div></td></tr><tr><td style="font-weight:bold;vertical-align:top">utcnow</td><td valign="top">:</td><td><div>datetime.datetime(2013, 9, 3, 23, 8, 37, 949043)</div></td></tr><tr><td style="font-weight:bold;vertical-align:top">uuid</td><td valign="top">:</td><td><div>siri_admin/192.225.182.66.2013-09-03.23-08-37.f7d271e3-1586-4b6e-a5b6-d17c5763b77c</div></td></tr><tr><td style="font-weight:bold;vertical-align:top">vars</td><td valign="top">:</td><td><div><table></table></div></td></tr><tr><td style="font-weight:bold;vertical-align:top">wsgi</td><td valign="top">:</td><td><div><table><tr><td style="font-weight:bold;vertical-align:top">environ</td><td valign="top">:</td><td><div><table><tr><td style="font-weight:bold;vertical-align:top">CONTENT_LENGTH</td><td valign="top">:</td><td><div></div></td></tr><tr><td style="font-weight:bold;vertical-align:top">CONTENT_TYPE</td><td valign="top">:</td><td><div></div></td></tr><tr><td style="font-weight:bold;vertical-align:top">DOCUMENT_ROOT</td><td valign="top">:</td><td><div>/var/log/nginx/user_logs</div></td></tr><tr><td style="font-weight:bold;vertical-align:top">HTTPS</td><td valign="top">:</td><td><div>on</div></td></tr><tr><td style="font-weight:bold;vertical-align:top">HTTP_ACCEPT</td><td valign="top">:</td><td><div>text/html,application/xhtml+xml,application/xml;q=0.9,*/*;q=0.8</div></td></tr><tr><td style="font-weight:bold;vertical-align:top">HTTP_ACCEPT_ENCODING</td><td valign="top">:</td><td><div>gzip, deflate</div></td></tr><tr><td style="font-weight:bold;vertical-align:top">HTTP_ACCEPT_LANGUAGE</td><td valign="top">:</td><td><div>en-US,en;q=0.5</div></td></tr><tr><td style="font-weight:bold;vertical-align:top">HTTP_CACHE_CONTROL</td><td valign="top">:</td><td><div>max-age=0</div></td></tr><tr><td style="font-weight:bold;vertical-align:top">HTTP_CONNECTION</td><td valign="top">:</td><td><div>close</div></td></tr><tr><td style="font-weight:bold;vertical-align:top">HTTP_COOKIE</td><td valign="top">:</td><td><div>__utma=133430031.1333926040.1377126199.1377890758.1377896458.12; __utmz=133430031.1377213648.6.2.utmcsr=google|utmccn=(organic)|utmcmd=organic|utmctr=(not%20provided); session_data_examples=&quot;c8bb9c561ef9a9d9533cc07f32cc3793:sRy766YUeNT3CFfDaQKF3ldlXcw1MjYLwT15PgXg7AlV6ZAppInKm_oOMpvERpDbqGgy3pk35OMmWBgjAkkEnpbuTx94qX5xFfym9HvoCnY2xMruT-wzrc4cDnIwkR6zhieLsV14z1PwldaH0BNDnxFNEh7WkZXx8RANvkJENL2uE-2dty9OzmjZxvNj5Vd2_z98VLHp2UyPMDBNuHFjyw4_pKY-P5AzUV1gMUoxl52SWg3Lfsg2uIXC82wIOIBOfaLgjUPRQ91JrMw4MULdF014uJpuHoejJ3AqRe2-4QoZOexfwUtxpRRXig-14Y77Fa1C17WvSO72JOOcqXbKAJ64PAcQxlsxyXPY2fUyxeA=&quot;; session_id_siri_admin=192.225.182.66-eb5b6931-e9ed-4335-a4be-5039afceecbf; session_id_welcome=192.225.182.66-17faf919-c419-40fe-9c71-658d3174ff01; session_id_sra=192.225.182.66-979b82b2-4dd9-4ed1-a0cd-17e904e37d0d; session_id_admin=192.225.182.66-606d5bea-b20a-4cc9-a454-1f08b1da05c8; __utmc=133430031; sessionid=f45fd9f6eb9052cddcc8c325b52e3326</div></td></tr><tr><td style="font-weight:bold;vertical-align:top">HTTP_HOST</td><td valign="top">:</td><td><div>siri.pythonanywhere.com</div></td></tr><tr><td style="font-weight:bold;vertical-align:top">HTTP_USER_AGENT</td><td valign="top">:</td><td><div>Mozilla/5.0 (Windows NT 6.1; WOW64; rv:23.0) Gecko/20100101 Firefox/23.0</div></td></tr><tr><td style="font-weight:bold;vertical-align:top">HTTP_X_FORWARDED_FOR</td><td valign="top">:</td><td><div>192.225.182.66</div></td></tr><tr><td style="font-weight:bold;vertical-align:top">HTTP_X_REAL_IP</td><td valign="top">:</td><td><div>192.225.182.66</div></td></tr><tr><td style="font-weight:bold;vertical-align:top">PATH_INFO</td><td valign="top">:</td><td><div>/siri_admin/default/gspreadtest</div></td></tr><tr><td style="font-weight:bold;vertical-align:top">QUERY_STRING</td><td valign="top">:</td><td><div></div></td></tr><tr><td style="font-weight:bold;vertical-align:top">REMOTE_ADDR</td><td valign="top">:</td><td><div>10.87.22.48</div></td></tr><tr><td style="font-weight:bold;vertical-align:top">REMOTE_PORT</td><td valign="top">:</td><td><div>46438</div></td></tr><tr><td style="font-weight:bold;vertical-align:top">REQUEST_METHOD</td><td valign="top">:</td><td><div>GET</div></td></tr><tr><td style="font-weight:bold;vertical-align:top">REQUEST_URI</td><td valign="top">:</td><td><div>/siri_admin/default/gspreadtest</div></td></tr><tr><td style="font-weight:bold;vertical-align:top">SCRIPT_NAME</td><td valign="top">:</td><td><div></div></td></tr><tr><td style="font-weight:bold;vertical-align:top">SERVER_NAME</td><td valign="top">:</td><td><div>siri.pythonanywhere.com</div></td></tr><tr><td style="font-weight:bold;vertical-align:top">SERVER_PORT</td><td valign="top">:</td><td><div>443</div></td></tr><tr><td style="font-weight:bold;vertical-align:top">SERVER_PROTOCOL</td><td valign="top">:</td><td><div>HTTP/1.1</div></td></tr><tr><td style="font-weight:bold;vertical-align:top">uwsgi.node</td><td valign="top">:</td><td><div>glenn-liveweb2</div></td></tr><tr><td style="font-weight:bold;vertical-align:top">uwsgi.version</td><td valign="top">:</td><td><div>1.9.12</div></td></tr><tr><td style="font-weight:bold;vertical-align:top">wsgi.errors</td><td valign="top">:</td><td><div>&lt;uwsgi_file__bin_user_wsgi_wrapper.ErrorLogWrapper object at 0x2071650&gt;</div></td></tr><tr><td style="font-weight:bold;vertical-align:top">wsgi.file_wrapper</td><td valign="top">:</td><td><div>&lt;built-in function uwsgi_sendfile&gt;</div></td></tr><tr><td style="font-weight:bold;vertical-align:top">wsgi.input</td><td valign="top">:</td><td><div>&lt;cStringIO.StringO object at 0x3b4dc70&gt;</div></td></tr><tr><td style="font-weight:bold;vertical-align:top">wsgi.multiprocess</td><td valign="top">:</td><td><div>True</div></td></tr><tr><td style="font-weight:bold;vertical-align:top">wsgi.multithread</td><td valign="top">:</td><td><div>False</div></td></tr><tr><td style="font-weight:bold;vertical-align:top">wsgi.run_once</td><td valign="top">:</td><td><div>False</div></td></tr><tr><td style="font-weight:bold;vertical-align:top">wsgi.url_scheme</td><td valign="top">:</td><td><div>https</div></td></tr><tr><td style="font-weight:bold;vertical-align:top">wsgi.version</td><td valign="top">:</td><td><div>1</div></td></tr></table></div></td></tr></table></div></td></tr></table></div>'
tRp62
sS'frames'
p63
(lp64
(dp65
S'file'
p66
S'/home/SIRI/web2py/gluon/restricted.py'
p67
sS'dump'
p68
(dp69
S'environment'
p70
S"{'A': <class 'gluon.html.A'>, 'ANY_OF': <class 'gluon.validators.ANY_OF'>, 'Auth': <class 'gluon.tools.Auth'>, 'B': <class 'gluon.html.B'>, 'BEAUTIFY': <class 'gluon.html.BEAUTIFY'>, 'BODY': <class 'gluon.html.BODY'>, 'BR': <class 'gluon.html.BR'>, 'BUTTON': <class 'gluon.html.BUTTON'>, 'CAT': <class 'gluon.html.CAT'>, 'CENTER': <class 'gluon.html.CENTER'>, ...}"
p71
sS'ccode'
p72
S'<code object <module> at 0x33fa030, file "/home/...ions/siri_admin/controllers/default.py", line 13>'
p73
ssS'lnum'
p74
I212
sS'lines'
p75
(dp76
I207
S'    try:'
p77
sI208
S'        if isinstance(code, types.CodeType):'
p78
sI209
S'            ccode = code'
p79
sI210
S'        else:'
p80
sI211
S'            ccode = compile2(code, layer)'
p81
sI212
S'        exec ccode in environment'
p82
sI213
S'    except HTTP:'
p83
sI214
S'        raise'
p84
sI215
S'    except RestrictedError:'
p85
sI216
S'        # do not encapsulate (obfuscate) the original RestrictedError'
p86
ssS'call'
p87
S"(code='# -*- coding: utf-8 -*-\\n# this file is released ...s)\\n\\nresponse._vars=response._caller(gspreadtest)\\n', environment={'A': <class 'gluon.html.A'>, 'ANY_OF': <class 'gluon.validators.ANY_OF'>, 'Auth': <class 'gluon.tools.Auth'>, 'B': <class 'gluon.html.B'>, 'BEAUTIFY': <class 'gluon.html.BEAUTIFY'>, 'BODY': <class 'gluon.html.BODY'>, 'BR': <class 'gluon.html.BR'>, 'BUTTON': <class 'gluon.html.BUTTON'>, 'CAT': <class 'gluon.html.CAT'>, 'CENTER': <class 'gluon.html.CENTER'>, ...}, layer='/home/SIRI/web2py/applications/siri_admin/controllers/default.py')"
p88
sS'func'
p89
S'restricted'
p90
sa(dp91
g66
S'/home/SIRI/web2py/applications/siri_admin/controllers/default.py'
p92
sg68
(dp93
sg74
I330
sg75
(dp94
I320
S'def fsshowstudents():'
p95
sI321
S'    """'
p96
sI322
S'    Shows a list of all students'
p97
sI323
S'    **** need to figure out how to filter it'
p98
sI324
S'    """'
p99
sI325
S"    response.flash = 'Please choose a student to edit'"
p100
sI326
S'    query = (db.fs_students)'
p101
sI327
S'    students = db(query).select()'
p102
sI328
S'    return dict(students = students)'
p103
sI319
S''
ssg87
S'()'
p104
sg89
S'<module>'
p105
sa(dp106
g66
S'/home/SIRI/web2py/gluon/globals.py'
p107
sg68
(dp108
S'self'
p109
S'undefined'
p110
sS'f'
S'<function gspreadtest>'
p111
ssg74
I194
sg75
(dp112
I192
S"        self.delimiters = ('{{', '}}')"
p113
sI193
S'        self._vars = None'
p114
sI194
S'        self._caller = lambda f: f()'
p115
sI195
S'        self._view_environment = None'
p116
sI196
S'        self._custom_commit = None'
p117
sI197
S'        self._custom_rollback = None'
p118
sI198
S''
sI189
S'        self.menu = []             # used by the default view layout'
p119
sI190
S'        self.files = []            # used by web2py_ajax.html'
p120
sI191
S'        self.generic_patterns = []  # patterns to allow generic views'
p121
ssg87
S'(f=<function gspreadtest>)'
p122
sg89
S'<lambda>'
p123
sa(dp124
g66
S'/home/SIRI/web2py/applications/siri_admin/controllers/default.py'
p125
sg68
(dp126
S'wks'
p127
S"<Worksheet 'Sheet1' id:od6>"
p128
sS'wks.update_cell'
p129
S"<bound method Worksheet.update_cell of <Worksheet 'Sheet1' id:od6>>"
p130
sS'idx'
p131
S'16'
p132
ssg74
I270
sg75
(dp133
I265
S'    # for entry in clockEntries:'
p134
sI266
S'    #     wks.update_cell(1, idx, entry.work_date)'
p135
sI267
S'    #     wks.update_cell(2, idx, entry.description)'
p136
sI268
S'    #     wks.update_cell(3, idx, entry.hours)'
p137
sI269
S'    #     idx += 1'
p138
sI270
S"    wks.update_cell(1, idx, 'today')"
p139
sI271
S"    wks.update_cell(2, idx, 'description')"
p140
sI272
S'    wks.update_cell(2, idx, 8)'
p141
sI273
S''
sI274
S'    return dict(cell_list=cell_list, clockEntries=clockEntries)'
p142
ssg87
S'()'
p143
sg89
S'gspreadtest'
p144
sa(dp145
g66
S'/home/SIRI/.local/lib/python2.7/site-packages/gspread/models.py'
p146
sg68
(dp147
S'feed'
p148
S"<Element '{http://www.w3.org/2005/Atom}entry'>"
p149
sS'self.client'
p150
S'<gspread.client.Client object>'
p151
sS'ElementTree.tostring'
p152
S'<function tostring>'
p153
sS'uri'
p154
S"'https://spreadsheets.google.com/feeds/cells/thZCnfgyICgaxdEVQYp2kCg/od6/private/full/R1C13/bdjcow'"
p155
sS'self.client.put_feed'
p156
S'<bound method Client.put_feed of <gspread.client.Client object>>'
p157
sS'global ElementTree'
p158
S"<module 'xml.etree.ElementTree' from '/usr/lib/python2.7/xml/etree/ElementTree.py'>"
p159
sS'self'
p160
S"<Worksheet 'Sheet1' id:od6>"
p161
ssg74
I423
sg75
(dp162
I418
S'                                                  self._cell_addr(row, col))'
p163
sI419
S"        cell_elem = feed.find(_ns1('cell'))"
p164
sI420
S"        cell_elem.set('inputValue', unicode(val))"
p165
sI421
S"        uri = self._get_link('edit', feed).get('href')"
p166
sI422
S''
sI423
S'        self.client.put_feed(uri, ElementTree.tostring(feed))'
p167
sI424
S''
sI425
S'    def _create_update_feed(self, cell_list):'
p168
sI426
S"        feed = Element('feed', {'xmlns': ATOM_NS,"
p169
sI427
S"                                'xmlns:batch': BATCH_NS,"
p170
ssg87
S"(self=<Worksheet 'Sheet1' id:od6>, row=1, col=16, val='today')"
p171
sg89
S'update_cell'
p172
sa(dp173
g66
S'/home/SIRI/.local/lib/python2.7/site-packages/gspread/client.py'
p174
sg68
(dp175
S'message'
p176
S"u'It looks like someone else already deleted this cell.'"
p177
sS'global UpdateCellError'
p178
S"<class 'gspread.exceptions.UpdateCellError'>"
p179
ssg74
I248
sg75
(dp180
I243
S'        try:'
p181
sI244
S'            r = self.session.put(url, data, headers=headers)'
p182
sI245
S'        except HTTPError as ex:'
p183
sI246
S'            if ex.code == 403:'
p184
sI247
S'                message = ex.read().decode()'
p185
sI248
S'                raise UpdateCellError(message)'
p186
sI249
S'            else:'
p187
sI250
S'                raise ex'
p188
sI251
S''
sI252
S'        return ElementTree.fromstring(r.read())'
p189
ssg87
S'(self=<gspread.client.Client object>, url=\'https://spreadsheets.google.com/feeds/cells/thZCnfgyICgaxdEVQYp2kCg/od6/private/full/R1C13/bdjcow\', data=u\'<?xml version=\\\'1.0\\\' encoding=\\\'UTF-8\\\'?><ns0...l="13" inputValue="today" row="1" /></ns0:entry>\')'
p190
sg89
S'put_feed'
p191
sasS'pyver'
p192
S'Python 2.7.4: /usr/local/bin/uwsgi (prefix: /usr)'
p193
sS'session'
p194
g61
(S's\x8c\x01\x00\x00<div><table><tr><td style="font-weight:bold;vertical-align:top">flash</td><td valign="top">:</td><td><div>None</div></td></tr><tr><td style="font-weight:bold;vertical-align:top">last_orderby</td><td valign="top">:</td><td><div>None</div></td></tr><tr><td style="font-weight:bold;vertical-align:top">last_query</td><td valign="top">:</td><td><div>db.auth_user.id&gt;0</div></td></tr></table></div>'
tRp195
sS'etype'
p196
S"<class 'gspread.exceptions.UpdateCellError'>"
p197
sS'date'
p198
S'Tue Sep  3 23:08:45 2013'
p199
sS'response'
p200
g61
(S's\xd3,\x00\x00<div><table><tr><td style="font-weight:bold;vertical-align:top">body</td><td valign="top">:</td><td><div>&lt;cStringIO.StringO object at 0x3b4da08&gt;</div></td></tr><tr><td style="font-weight:bold;vertical-align:top">cookies</td><td valign="top">:</td><td><div><table><tr><td style="font-weight:bold;vertical-align:top">session_id_siri_admin</td><td valign="top">:</td><td><div>192.225.182.66-eb5b6931-e9ed-4335-a4be-5039afceecbf<table><tr><td style="font-weight:bold;vertical-align:top">comment</td><td valign="top">:</td><td><div></div></td></tr><tr><td style="font-weight:bold;vertical-align:top">domain</td><td valign="top">:</td><td><div></div></td></tr><tr><td style="font-weight:bold;vertical-align:top">expires</td><td valign="top">:</td><td><div></div></td></tr><tr><td style="font-weight:bold;vertical-align:top">httponly</td><td valign="top">:</td><td><div></div></td></tr><tr><td style="font-weight:bold;vertical-align:top">max-age</td><td valign="top">:</td><td><div></div></td></tr><tr><td style="font-weight:bold;vertical-align:top">path</td><td valign="top">:</td><td><div>/</div></td></tr><tr><td style="font-weight:bold;vertical-align:top">secure</td><td valign="top">:</td><td><div></div></td></tr><tr><td style="font-weight:bold;vertical-align:top">version</td><td valign="top">:</td><td><div></div></td></tr></table></div></td></tr></table></div></td></tr><tr><td style="font-weight:bold;vertical-align:top">delimiters</td><td valign="top">:</td><td><div><table><tr><td><div>{{</div></td></tr><tr><td><div>}}</div></td></tr></table></div></td></tr><tr><td style="font-weight:bold;vertical-align:top">files</td><td valign="top">:</td><td><div><table></table></div></td></tr><tr><td style="font-weight:bold;vertical-align:top">flash</td><td valign="top">:</td><td><div></div></td></tr><tr><td style="font-weight:bold;vertical-align:top">generic_patterns</td><td valign="top">:</td><td><div><table></table></div></td></tr><tr><td style="font-weight:bold;vertical-align:top">google_analytics_id</td><td valign="top">:</td><td><div>None</div></td></tr><tr><td style="font-weight:bold;vertical-align:top">headers</td><td valign="top">:</td><td><div><table><tr><td style="font-weight:bold;vertical-align:top">X-Powered-By</td><td valign="top">:</td><td><div>web2py</div></td></tr></table></div></td></tr><tr><td style="font-weight:bold;vertical-align:top">logo</td><td valign="top">:</td><td><div><a class="brand" href="/siri_admin/default/clockadmin"><b>SIRI</b>&trade;&nbsp;</a></div></td></tr><tr><td style="font-weight:bold;vertical-align:top">menu</td><td valign="top">:</td><td><div><table><tr><td><div><table><tr><td><div>Home</div></td></tr><tr><td><div>False</div></td></tr><tr><td><div>/siri_admin/default/index</div></td></tr><tr><td><div><table></table></div></td></tr></table></div></td></tr><tr><td><div><table><tr><td><div><span class="highlighted">web2py</span></div></td></tr><tr><td><div>False</div></td></tr><tr><td><div>http://web2py.com</div></td></tr><tr><td><div><table><tr><td><div><table><tr><td><div>My Sites</div></td></tr><tr><td><div>False</div></td></tr><tr><td><div>/admin/default/site</div></td></tr></table></div></td></tr><tr><td><div><table><tr><td><div>This App</div></td></tr><tr><td><div>False</div></td></tr><tr><td><div>/admin/default/design/siri_admin</div></td></tr><tr><td><div>[(&lt;lazyT &#x27;Controller&#x27;&gt;, False, &#x27;/admin/default/edit/siri_admin/controllers/default.py&#x27;), (&lt;lazyT &#x27;View&#x27;&gt;, False, &#x27;/admin/default/edit/siri_admin/views/default/gspreadtest.html&#x27;), (&lt;lazyT &#x27;Layout&#x27;&gt;, False, &#x27;/admin/default/edit/siri_admin/views/layout.html&#x27;), (&lt;lazyT &#x27;Stylesheet&#x27;&gt;, False, &#x27;/admin/default/edit/siri_admin/static/css/web2py.css&#x27;), (&lt;lazyT &#x27;DB Model&#x27;&gt;, False, &#x27;/admin/default/edit/siri_admin/models/db.py&#x27;), (&lt;lazyT &#x27;Menu Model&#x27;&gt;, False, &#x27;/admin/default/edit/siri_admin/models/menu.py&#x27;), (&lt;lazyT &#x27;Database&#x27;&gt;, False, &#x27;/siri_admin/appadmin/index&#x27;), (&lt;lazyT &#x27;Errors&#x27;&gt;, False, &#x27;/admin/default/errors/siri_admin&#x27;), (&lt;lazyT &#x27;About&#x27;&gt;, False, &#x27;/admin/default/about/siri_admin&#x27;)]</div></td></tr></table></div></td></tr><tr><td><div><table><tr><td><div>web2py.com</div></td></tr><tr><td><div>False</div></td></tr><tr><td><div>http://www.web2py.com</div></td></tr><tr><td><div>[(&lt;lazyT &#x27;Download&#x27;&gt;, False, &#x27;http://www.web2py.com/examples/default/download&#x27;), (&lt;lazyT &#x27;Support&#x27;&gt;, False, &#x27;http://www.web2py.com/examples/default/support&#x27;), (&lt;lazyT &#x27;Demo&#x27;&gt;, False, &#x27;http://web2py.com/demo_admin&#x27;), (&lt;lazyT &#x27;Quick Examples&#x27;&gt;, False, &#x27;http://web2py.com/examples/default/examples&#x27;), (&lt;lazyT &#x27;FAQ&#x27;&gt;, False, &#x27;http://web2py.com/AlterEgo&#x27;), (&lt;lazyT &#x27;Videos&#x27;&gt;, False, &#x27;http://www.web2py.com/examples/default/videos/&#x27;), (&lt;lazyT &#x27;Free Applications&#x27;&gt;, False, &#x27;http://web2py.com/appliances&#x27;), (&lt;lazyT &#x27;Plugins&#x27;&gt;, False, &#x27;http://web2py.com/plugins&#x27;), (&lt;lazyT &#x27;Layouts&#x27;&gt;, False, &#x27;http://web2py.com/layouts&#x27;), (&lt;lazyT &#x27;Recipes&#x27;&gt;, False, &#x27;http://web2pyslices.com/&#x27;), (&lt;lazyT &#x27;Semantic&#x27;&gt;, False, &#x27;http://web2py.com/semantic&#x27;)]</div></td></tr></table></div></td></tr><tr><td><div><table><tr><td><div>Documentation</div></td></tr><tr><td><div>False</div></td></tr><tr><td><div>http://www.web2py.com/book</div></td></tr><tr><td><div>[(&lt;lazyT &#x27;Preface&#x27;&gt;, False, &#x27;http://www.web2py.com/book/default/chapter/00&#x27;), (&lt;lazyT &#x27;Introduction&#x27;&gt;, False, &#x27;http://www.web2py.com/book/default/chapter/01&#x27;), (&lt;lazyT &#x27;Python&#x27;&gt;, False, &#x27;http://www.web2py.com/book/default/chapter/02&#x27;), (&lt;lazyT &#x27;Overview&#x27;&gt;, False, &#x27;http://www.web2py.com/book/default/chapter/03&#x27;), (&lt;lazyT &#x27;The Core&#x27;&gt;, False, &#x27;http://www.web2py.com/book/default/chapter/04&#x27;), (&lt;lazyT &#x27;The Views&#x27;&gt;, False, &#x27;http://www.web2py.com/book/default/chapter/05&#x27;), (&lt;lazyT &#x27;Database&#x27;&gt;, False, &#x27;http://www.web2py.com/book/default/chapter/06&#x27;), (&lt;lazyT &#x27;Forms and Validators&#x27;&gt;, False, &#x27;http://www.web2py.com/book/default/chapter/07&#x27;), (&lt;lazyT &#x27;Email and SMS&#x27;&gt;, False, &#x27;http://www.web2py.com/book/default/chapter/08&#x27;), (&lt;lazyT &#x27;Access Control&#x27;&gt;, False, &#x27;http://www.web2py.com/book/default/chapter/09&#x27;), (&lt;lazyT &#x27;Services&#x27;&gt;, False, &#x27;http://www.web2py.com/book/default/chapter/10&#x27;), (&lt;lazyT &#x27;Ajax Recipes&#x27;&gt;, False, &#x27;http://www.web2py.com/book/default/chapter/11&#x27;), (&lt;lazyT &#x27;Components and Plugins&#x27;&gt;, False, &#x27;http://www.web2py.com/book/default/chapter/12&#x27;), (&lt;lazyT &#x27;Deployment Recipes&#x27;&gt;, False, &#x27;http://www.web2py.com/book/default/chapter/13&#x27;), (&lt;lazyT &#x27;Other Recipes&#x27;&gt;, False, &#x27;http://www.web2py.com/book/default/chapter/14&#x27;), (&lt;lazyT &#x27;Buy this book&#x27;&gt;, False, &#x27;http://stores.lulu.com/web2py&#x27;)]</div></td></tr></table></div></td></tr><tr><td><div><table><tr><td><div>Community</div></td></tr><tr><td><div>False</div></td></tr><tr><td><div>None</div></td></tr><tr><td><div>[(&lt;lazyT &#x27;Groups&#x27;&gt;, False, &#x27;http://www.web2py.com/examples/default/usergroups&#x27;), (&lt;lazyT &#x27;Twitter&#x27;&gt;, False, &#x27;http://twitter.com/web2py&#x27;), (&lt;lazyT &#x27;Live Chat&#x27;&gt;, False, &#x27;http://webchat.freenode.net/?channels=web2py&#x27;)]</div></td></tr></table></div></td></tr><tr><td><div><table><tr><td><div>Plugins</div></td></tr><tr><td><div>False</div></td></tr><tr><td><div>None</div></td></tr><tr><td><div>[(&#x27;plugin_wiki&#x27;, False, &#x27;http://web2py.com/examples/default/download&#x27;), (&lt;lazyT &#x27;Other Plugins&#x27;&gt;, False, &#x27;http://web2py.com/plugins&#x27;), (&lt;lazyT &#x27;Layout Plugins&#x27;&gt;, False, &#x27;http://web2py.com/layouts&#x27;)]</div></td></tr></table></div></td></tr></table></div></td></tr></table></div></td></tr></table></div></td></tr><tr><td style="font-weight:bold;vertical-align:top">meta</td><td valign="top">:</td><td><div><table><tr><td style="font-weight:bold;vertical-align:top">author</td><td valign="top">:</td><td><div>Evan Caldwell &lt;evancaldwell@yahoo.com&gt;</div></td></tr><tr><td style="font-weight:bold;vertical-align:top">description</td><td valign="top">:</td><td><div>A time clock for SIRI employees</div></td></tr><tr><td style="font-weight:bold;vertical-align:top">generator</td><td valign="top">:</td><td><div>Web2py Web Framework</div></td></tr><tr><td style="font-weight:bold;vertical-align:top">keywords</td><td valign="top">:</td><td><div>SIRI, time, clock</div></td></tr></table></div></td></tr><tr><td style="font-weight:bold;vertical-align:top">models_to_run</td><td valign="top">:</td><td><div><table><tr><td><div>^\\w+\\.py$</div></td></tr><tr><td><div>^default/\\w+\\.py$</div></td></tr><tr><td><div>^default/gspreadtest/\\w+\\.py$</div></td></tr></table></div></td></tr><tr><td style="font-weight:bold;vertical-align:top">postprocessing</td><td valign="top">:</td><td><div><table></table></div></td></tr><tr><td style="font-weight:bold;vertical-align:top">session_cookie_expires</td><td valign="top">:</td><td><div>None</div></td></tr><tr><td style="font-weight:bold;vertical-align:top">session_data_name</td><td valign="top">:</td><td><div>session_data_siri_admin</div></td></tr><tr><td style="font-weight:bold;vertical-align:top">session_file</td><td valign="top">:</td><td><div>&lt;open file &#x27;/home/SIRI/web2py/applications/siri_admin/sessions/192.225.182.66-eb5b6931-e9ed-4335-a4be-5039afceecbf&#x27;, mode &#x27;rb+&#x27; at 0x4485db0&gt;</div></td></tr><tr><td style="font-weight:bold;vertical-align:top">session_filename</td><td valign="top">:</td><td><div>/home/SIRI/web2py/applications/siri_admin/sessions/192.225.182.66-eb5b6931-e9ed-4335-a4be-5039afceecbf</div></td></tr><tr><td style="font-weight:bold;vertical-align:top">session_id</td><td valign="top">:</td><td><div>192.225.182.66-eb5b6931-e9ed-4335-a4be-5039afceecbf</div></td></tr><tr><td style="font-weight:bold;vertical-align:top">session_id_name</td><td valign="top">:</td><td><div>session_id_siri_admin</div></td></tr><tr><td style="font-weight:bold;vertical-align:top">session_locked</td><td valign="top">:</td><td><div>True</div></td></tr><tr><td style="font-weight:bold;vertical-align:top">session_new</td><td valign="top">:</td><td><div>False</div></td></tr><tr><td style="font-weight:bold;vertical-align:top">session_storage_type</td><td valign="top">:</td><td><div>file</div></td></tr><tr><td style="font-weight:bold;vertical-align:top">status</td><td valign="top">:</td><td><div>200</div></td></tr><tr><td style="font-weight:bold;vertical-align:top">subtitle</td><td valign="top">:</td><td><div>customize me!</div></td></tr><tr><td style="font-weight:bold;vertical-align:top">title</td><td valign="top">:</td><td><div>SIRI Admin</div></td></tr><tr><td style="font-weight:bold;vertical-align:top">view</td><td valign="top">:</td><td><div>default/gspreadtest.html</div></td></tr></table></div>'
tRp201
sS'locals'
p202
(dp203
S'url'
p204
S"'https://spreadsheets.google.com/feeds/cells/thZCnfgyICgaxdEVQYp2kCg/od6/private/full/R1C13/bdjcow'"
p205
sS'self'
p206
S'<gspread.client.Client object>'
p207
sS'headers'
p208
S"{'Content-Type': 'application/atom+xml'}"
p209
sS'ex'
p210
S'HTTPError()'
p211
sS'message'
p212
S"u'It looks like someone else already deleted this cell.'"
p213
sS'data'
p214
S'u\'<?xml version=\\\'1.0\\\' encoding=\\\'UTF-8\\\'?><ns0...l="13" inputValue="today" row="1" /></ns0:entry>\''
p215
sssS'traceback'
p216
S'Traceback (most recent call last):\n  File "/home/SIRI/web2py/gluon/restricted.py", line 212, in restricted\n    exec ccode in environment\n  File "/home/SIRI/web2py/applications/siri_admin/controllers/default.py", line 330, in <module>\n  File "/home/SIRI/web2py/gluon/globals.py", line 194, in <lambda>\n    self._caller = lambda f: f()\n  File "/home/SIRI/web2py/applications/siri_admin/controllers/default.py", line 270, in gspreadtest\n    wks.update_cell(1, idx, \'today\')\n  File "/home/SIRI/.local/lib/python2.7/site-packages/gspread/models.py", line 423, in update_cell\n    self.client.put_feed(uri, ElementTree.tostring(feed))\n  File "/home/SIRI/.local/lib/python2.7/site-packages/gspread/client.py", line 248, in put_feed\n    raise UpdateCellError(message)\nUpdateCellError: It looks like someone else already deleted this cell.\n'
p217
s.