(dp1
S'output'
p2
S"<type 'exceptions.SyntaxError'> invalid select attribute: project_reviewed"
p3
sS'layer'
p4
S'/home/SIRI/web2py/applications/siri_admin/controllers/default.py'
p5
sS'code'
p6
S'# -*- coding: utf-8 -*-\n# this file is released under public domain and you can use without limitations\n\n#########################################################################\n## This is a sample controller\n## - index is the default action of any application\n## - user is required for authentication and authorization\n## - download is for downloading files uploaded in the db (does streaming)\n## - call exposes all registered services (none by default)\n#########################################################################\n\n\ndef index():\n    """\n    example action using the internationalization operator T and flash\n    rendered by views/default/index.html or views/generic.html\n\n    if you need a simple wiki simple replace the two lines below with:\n    return auth.wiki()\n    """\n    response.flash = T("Welcome to web2py!")\n    return dict(message=T(\'Hello World\'))\n\n\ndef user():\n    """\n    exposes:\n    http://..../[app]/default/user/login\n    http://..../[app]/default/user/logout\n    http://..../[app]/default/user/register\n    http://..../[app]/default/user/profile\n    http://..../[app]/default/user/retrieve_password\n    http://..../[app]/default/user/change_password\n    http://..../[app]/default/user/manage_users (requires membership in\n    use @auth.requires_login()\n        @auth.requires_membership(\'group name\')\n        @auth.requires_permission(\'read\',\'table name\',record_id)\n    to decorate functions that need access control\n    """\n    return dict(form=auth())\n\n@cache.action()\ndef download():\n    """\n    allows downloading of uploaded files\n    http://..../[app]/default/download/[filename]\n    """\n    return response.download(request, db)\n\n\ndef call():\n    """\n    exposes services. for example:\n    http://..../[app]/default/call/jsonrpc\n    decorate with @services.jsonrpc the functions to expose\n    supports xml, json, xmlrpc, jsonrpc, amfrpc, rss, csv\n    """\n    return service()\n\n\n@auth.requires_signature()\ndef data():\n    """\n    http://..../[app]/default/data/tables\n    http://..../[app]/default/data/create/[table]\n    http://..../[app]/default/data/read/[table]/[id]\n    http://..../[app]/default/data/update/[table]/[id]\n    http://..../[app]/default/data/delete/[table]/[id]\n    http://..../[app]/default/data/select/[table]\n    http://..../[app]/default/data/search/[table]\n    but URLs must be signed, i.e. linked with\n      A(\'table\',_href=URL(\'data/tables\',user_signature=True))\n    or with the signed load operator\n      LOAD(\'default\',\'data.load\',args=\'tables\',ajax=True,user_signature=True)\n    """\n    return dict(form=crud())\n\n\n###############################\n## custom general functions\n###############################\n\n@auth.requires_login()\ndef displayusers():\n    """\n    Shows the list of users\n    """\n    response.flash = \'This page shows a list of users\'\n    query = (db.auth_user)\n    users = db(query).select()\n    return dict(users = users)\n\n\n###############################\n## custom time clock functions\n###############################\n\n@auth.requires_login()\ndef mainpage():\n    """\n    this will become the index page\n    """\n    fields = [\'project\',\'work_date\',\'time_in\',\'time_out\',\'description\']\n    form = SQLFORM(db.timeclock, submit_button = \'Submit Hours\', fields = fields)\n    if form.process(onvalidation=calcHours).accepted:\n        response.flash = \'Thank you for submitting your time \' + str(form.vars.hours)\n    elif form.errors:\n        response.flash = \'There was an error on the form\'\n    else:\n        response.flash = \'Welcome \' + session.auth.user.first_name + \' your id is: \' + str(session.auth.user.id)\n    response.title = \'Welcome \' + session.auth.user.first_name\n    response.subtitle = \'please review your time or fill out the form below to add time\'\n\n    query = (db.timeclock.usr_id == session.auth.user.id)\n    clockEntries = db(query).select()\n    totalHours = 0\n    for entry in clockEntries:\n        totalHours += float(entry.hours)\n    return dict(form=form, clockEntries=clockEntries, totalHours=totalHours)\n\ndef engage():\n\n    response.title = \'Engage!\'\n    response.subtitle = \'Let SIRI help you tie into our collaborative network.\'\n\n    return dict()\n\n@auth.requires_login()\ndef engagepartner():\n    fields = [\'project_contact_org\', \'project_contact_name\', \'project_contact_phone\', \'project_contact_email\', \'project_contact_loc\', \'project_num_students\']\n    form = SQLFORM(db.siri_projects, submit_button = \'Submit\', fields = fields)\n    if form.process().accepted:\n        response.flash = \'Thank you for your interest in partnering with SIRI\'\n    elif form.errors:\n        response.flash = \'There was an error on the form\'\n    else:\n        response.flash = \'Welcome \' + session.auth.user.first_name + \', tell us how we can help you.\'\n\n    return dict(form=form)\n\ndef engagestudent():\n    fields = [\'project_contact_org\', \'project_contact_name\', \'project_contact_phone\', \'project_contact_email\', \'project_contact_loc\', \'project_num_students\']\n    form = SQLFORM(db.siri_students, submit_button = \'Submit\', fields = fields)\n    if form.process().accepted:\n        response.flash = \'Thank you for your interest in partnering with SIRI\'\n    elif form.errors:\n        response.flash = \'There was an error on the form\'\n    else:\n        response.flash = \'Welcome \' + session.auth.user.first_name + \', tell us how we can help you.\'\n\n    return dict(form=form)\n\ndef engagementor():\n    fields = [\'project_contact_org\', \'project_contact_name\', \'project_contact_phone\', \'project_contact_email\', \'project_contact_loc\', \'project_num_students\']\n    form = SQLFORM(db.siri_mentors, submit_button = \'Submit\', fields = fields)\n    if form.process().accepted:\n        response.flash = \'Thank you for your interest in partnering with SIRI\'\n    elif form.errors:\n        response.flash = \'There was an error on the form\'\n    else:\n        response.flash = \'Welcome \' + session.auth.user.first_name + \', tell us how we can help you.\'\n\n    return dict(form=form)\n\ndef calcHours(form):\n    hourDiff = int(form.vars.time_out[0:2]) - int(form.vars.time_in[0:2])\n    minDiff = (int(form.vars.time_out[3:5]) - int(form.vars.time_in[3:5]))/60.0\n    form.vars.hours = hourDiff + minDiff\n\n@auth.requires_login()\ndef clockadmin():\n    adminMenu = MENU([\n        [\'Manage Projects\', False, URL(manageprojects)],\n        [\'Manage Users\', False, URL(manageusers)],\n        [\'Manage Groups\', False, URL(managegroups)]\n        ])\n\n    users = db(db.auth_user.id).select()\n    projects = db(db.siri_projects).select()\n    groups = db(db.auth_group).select()\n\n    response.title = \'SIRI Administration\'\n    response.subtitle = \'Manage, edit or add users, groups and projects\'\n    return dict(adminMenu=adminMenu, users=users, projects=projects, groups=groups)\n\n@auth.requires_login()\ndef manageprojects():\n    adminMenu = MENU([\n        [\'Admin Home\', False, URL(clockadmin)],\n        [\'Manage Users\', False, URL(manageusers)],\n        [\'Manage Groups\', False, URL(managegroups)]\n        ])\n    form = SQLFORM(db.siri_projects)\n    if form.process().accepted:\n        response.flash = \'Thank you for submitting a new project\'\n    elif form.errors:\n        response.flash = \'There was an error on the form\'\n    else:\n        response.flash = \'Welcome \' + session.auth.user.first_name + \' your id is: \' + str(session.auth.user.id)\n    \n    projects = db(db.siri_projects).select()\n    reviewProjects = db(db.siri_projects).select(project_reviewed=False)\n\n    for project in projects:\n        if len(project.project_desc) > 75:\n            project.project_desc = project.project_desc[:75] + \'...\'\n\n\n    return dict(form=form, projects=projects, reviewProjects=reviewProjects, adminMenu=adminMenu)\n\n@auth.requires_login()\ndef editproject():\n    record = db.siri_projects(request.args(0)) or redirect(URL(\'clockadmin\'))\n    form = SQLFORM(db.siri_projects, record)\n    if form.process(next=\'manageprojects\').accepted:\n        response.flash = \'Thank you, the project has been updated\'\n    elif form.errors:\n        response.flash = \'There was an error on the form\'\n    else:\n        response.flash = \'Please update the project info\'\n    return dict(form=form)\n\n@auth.requires_login()\ndef managegroups():\n    adminMenu = MENU([[\'Admin Home\', False, URL(clockadmin)],[\'Manage Projects\', False, URL(manageprojects)],[\'Manage Users\', False, URL(manageusers)]])\n    groups = db(db.auth_group).select()\n\n    return dict(groupList=groups)\n\n@auth.requires_login()\ndef manageusers():\n    adminMenu = MENU([[\'Admin Home\', False, URL(clockadmin)],[\'Manage Projects\', False, URL(manageprojects)],[\'Manage Groups\', False, URL(managegroups)]])\n    userFilter = MENU([[],[]])\n    users = db(db.auth_user).select()\n    form = SQLFORM(db.auth_user)\n    if form.process().accepted:\n        response.flash = \'Thank you for adding a new user, be sure to let them know their temporary password\'\n    elif form.errors:\n        response.flash = \'There was an error on the form\'\n    else:\n        response.flash = \'Welcome \' + session.auth.user.first_name + \' feel free to edit or add users\'\n\n    return dict(users=users, form=form, adminMenu=adminMenu)\n\n@auth.requires_login()\ndef edituser():\n    record = db.auth_user(request.args(0)) or redirect(URL(\'clockadmin\'))\n    form = SQLFORM(db.auth_user, record)\n    if form.process(next=\'manageusers\').accepted:  #**** need to next to referring page\n        response.flash = \'Thank you, the user has been updated\'\n    elif form.errors:\n        response.flash = \'There was an error on the form\'\n    else:\n        response.flash = \'Please update the user info\'\n    return dict(form=form)\n\n@auth.requires_login()\ndef addtime():\n    """\n    Allows a loggedin user to add an entry for time worked\n    """\n    form = SQLFORM(db.timeclock)\n    if form.process().accepted:\n        response.flash = \'Thank you for submitting your time\'\n    elif form.errors:\n        response.flash = \'There was an error on the form\'\n    else:\n        response.flash = \'Welcome \' + session.auth.user.first_name + \' your id is: \' + str(session.auth.user.id)\n    response.title = \'New Entry\'\n    response.subtitle = \'please fill out the form below\'\n    hoursTest = type(db.timeclock.time_in)\n    return dict(form=form, hoursTest=hoursTest)\n\n@auth.requires_login()\ndef displaytime():\n    """\n    Shows the entries for the user that is logged in\n    """\n    response.flash = \'This page shows your entries\'\n    clockEntries = db(db.timeclock.usr_id == session.auth.user.id).select()\n    return dict(clockEntries = clockEntries)\n\ndef gdatatest():\n    """\n    testing integration with Google\n    """\n\n    gemail = \'dawg3tt@gmail.com\'\n    gpwd = \'mol090901!\'\n\n    # ############ get docs list example #################################################\n    # # Create a client class which will make HTTP requests with Google Docs server.\n    # gdocsClient = gdata.docs.service.DocsService()\n    # # Authenticate using your Google Docs email address and password.\n    # gdocsClient.email = gemail\n    # gdocsClient.password = gpwd\n    # gdocsClient.source = \'SIRI Admin\'\n    # gdocsClient.ProgrammaticLogin()\n    # # Query the server for an Atom feed containing a list of your documents.\n    # docsFeed = gdocsClient.GetDocumentListFeed()\n    # ####################################################################################\n    \n    # return dict(docsFeed=docsFeed)\n\ndef gspreadtest():\n    users = db(db.auth_user).select()\n    clockEntries = db(db.timeclock.project == \'DDM\').select()\n    for user in users:\n        user\n\n    gc = gspread.login(\'dawg3tt@gmail.com\', \'mol090901!\')\n    ss = gc.open("web2py_tester")\n    wks = ss.sheet1\n    timeList = wks.range(\'A16:E30\')\n    for cell in timeList:\n        cell.value = \'\'\n    wks.update_cells(timeList)\n    newks = ss.add_worksheet(title="employee", rows="30", cols="6")\n    newks.update_cell(1,1, \'invoice\')\n    copyRange = wks.range(\'A1:F30\')\n    newRange = newks.range(\'A1:F30\')\n    copyList = wks.get_all_values()\n    newks.update_cells(copyRange)\n\n    update = False\n    if update:\n        rate = 10\n        idx = 16\n        for entry in clockEntries:\n            wks.update_cell(idx, 1, entry.work_date)\n            wks.update_cell(idx, 2, entry.description)\n            wks.update_cell(idx, 3, entry.hours)\n            wks.update_cell(idx, 4, rate) #****this should be replaced by a query for rate added by admin\n            wks.update_cell(idx, 5, rate*entry.hours)\n            idx += 1\n\n    return dict(\n        timeList=timeList, \n        clockEntries=clockEntries, \n        users=users, \n        wks=wks,\n        newks=newks,\n        copyRange=copyRange, \n        copyList=copyList\n        )\n\n# def copyCells(values, newks):\n#     for row in values:\n#         for cell in rows:\n\n\n#################################\n## custom FamilySearch functions\n#################################\n\ndef fsapply():\n    """\n    Allows interested students to apply for the opportunity\n    """\n    form = SQLFORM(db.fs_prospects,fields = [\'interested_location\',\'interested_dates\',\'language_level\',\'referred_by\',\'resume\'])\n    if form.process().accepted:\n        response.flash = \'Thank you, we will keep you updated about this and future opportunities\'\n    elif form.errors:\n        response.flash = \'There was an error on the form\'\n    else:\n        response.flash = \'Welcome, please fill out the information below\'\n    return dict(form=form)\n\ndef fsregister():\n    """\n    Allows approved prospects to register for their project\n    """\n    form = SQLFORM(db.fs_volunteers, fields = [\'opp_location\',\'internship\',\'training_hotel\',\'birthday\',\'emergency_name\',\'emergency_phone\'])\n    if form.process().accepted: #**** next=fsoverview - directs user to an overview page\n        response.flash = \'Thank you, we will be making arrangements for your trip\'\n    elif form.errors:\n        response.flash = \'There was an error on the form\'\n    else:\n        response.flash = \'Welcome, please fill out the information below\'\n    return dict(form=form)\n\ndef fsstudentupdate():\n    """\n    Allows administration to fill out or update additional information about the student\n    """\n    record = db.fs_volunteers(request.args(0)) or redirect(URL(\'index\'))\n    form = SQLFORM(db.fs_volunteers, record)\n    if form.process(next=\'fsshowstudents\').accepted:\n        response.flash = \'Thank you, the student has been updated\'\n    elif form.errors:\n        response.flash = \'There was an error on the form\'\n    else:\n        response.flash = \'Please update the students info\'\n    return dict(form=form)\n\ndef fsshowstudents():\n    """\n    Shows a list of all students\n    **** need to figure out how to filter it\n    """\n    response.flash = \'Please choose a student to edit\'\n    query = (db.fs_volunteers)\n    students = db(query).select()\n    return dict(students = students)\n\nresponse._vars=response._caller(manageprojects)\n'
p7
sS'snapshot'
p8
(dp9
S'exception'
p10
(dp11
S'__getslice__'
p12
S"<method-wrapper '__getslice__' of exceptions.SyntaxError object>"
p13
sS'text'
p14
S'None'
p15
sS'__str__'
p16
S"<method-wrapper '__str__' of exceptions.SyntaxError object>"
p17
sS'__reduce__'
p18
S'<built-in method __reduce__ of exceptions.SyntaxError object>'
p19
sS'__dict__'
p20
S'{}'
p21
sS'__sizeof__'
p22
S'<built-in method __sizeof__ of exceptions.SyntaxError object>'
p23
sS'__init__'
p24
S"<method-wrapper '__init__' of exceptions.SyntaxError object>"
p25
sS'__setattr__'
p26
S"<method-wrapper '__setattr__' of exceptions.SyntaxError object>"
p27
sS'__reduce_ex__'
p28
S'<built-in method __reduce_ex__ of exceptions.SyntaxError object>'
p29
sS'__new__'
p30
S'<built-in method __new__ of type object>'
p31
sS'__format__'
p32
S'<built-in method __format__ of exceptions.SyntaxError object>'
p33
sS'__class__'
p34
S"<type 'exceptions.SyntaxError'>"
p35
sS'filename'
p36
S'None'
p37
sS'lineno'
p38
S'None'
p39
sS'msg'
p40
S"'invalid select attribute: project_reviewed'"
p41
sS'__doc__'
p42
S"'Invalid syntax.'"
p43
sS'__getitem__'
p44
S"<method-wrapper '__getitem__' of exceptions.SyntaxError object>"
p45
sS'__setstate__'
p46
S'<built-in method __setstate__ of exceptions.SyntaxError object>'
p47
sS'__getattribute__'
p48
S"<method-wrapper '__getattribute__' of exceptions.SyntaxError object>"
p49
sS'print_file_and_line'
p50
S'None'
p51
sS'args'
p52
S"('invalid select attribute: project_reviewed',)"
p53
sS'__subclasshook__'
p54
S'<built-in method __subclasshook__ of type object>'
p55
sS'offset'
p56
S'None'
p57
sS'__unicode__'
p58
S'<built-in method __unicode__ of exceptions.SyntaxError object>'
p59
sS'__delattr__'
p60
S"<method-wrapper '__delattr__' of exceptions.SyntaxError object>"
p61
sS'__repr__'
p62
S"<method-wrapper '__repr__' of exceptions.SyntaxError object>"
p63
sS'__hash__'
p64
S"<method-wrapper '__hash__' of exceptions.SyntaxError object>"
p65
ssS'evalue'
p66
S'invalid select attribute: project_reviewed'
p67
sS'request'
p68
cgluon.html
XML_unpickle
p69
(S's\x18T\x00\x00<div><table><tr><td style="font-weight:bold;vertical-align:top">ajax</td><td valign="top">:</td><td><div>False</div></td></tr><tr><td style="font-weight:bold;vertical-align:top">application</td><td valign="top">:</td><td><div>siri_admin</div></td></tr><tr><td style="font-weight:bold;vertical-align:top">args</td><td valign="top">:</td><td><div><table></table></div></td></tr><tr><td style="font-weight:bold;vertical-align:top">body</td><td valign="top">:</td><td><div>&lt;cStringIO.StringO object at 0x480f810&gt;</div></td></tr><tr><td style="font-weight:bold;vertical-align:top">cid</td><td valign="top">:</td><td><div>None</div></td></tr><tr><td style="font-weight:bold;vertical-align:top">client</td><td valign="top">:</td><td><div>192.225.182.66</div></td></tr><tr><td style="font-weight:bold;vertical-align:top">controller</td><td valign="top">:</td><td><div>default</div></td></tr><tr><td style="font-weight:bold;vertical-align:top">cookies</td><td valign="top">:</td><td><div><table><tr><td style="font-weight:bold;vertical-align:top">session_data_examples</td><td valign="top">:</td><td><div>0e0fe0b73045683cd3678555e9fd26cb:tbv4jnU6Tn7Xd9rWwnd0M3NC0t-iqnhRXZhM7GLxKydvHl-UYHgM9n4cpiox05v8perogZEdFwICovEqCOOZIIgJAZYUWOhfOrYg7o_S6ioE1VXqDboGwWxepVmiI23qG_GwIix0jbpWC0CjJ1Dg6RJ8jmHmujoD4Z0V48CxlOKvA03Jion14MA7gurlE7htey1XWpyhtV9Jun4fMijCi-nu0ZQRa0tYL4pkclhgTRKUMZI-R90zuvtM0H1BvjNXRuoxFq6QH2WTbcMpGHSq9BhR_FzNtA7Nqcbu60VgHkz6W0PMvlLSbSbWo3lj4zUX<table><tr><td style="font-weight:bold;vertical-align:top">comment</td><td valign="top">:</td><td><div></div></td></tr><tr><td style="font-weight:bold;vertical-align:top">domain</td><td valign="top">:</td><td><div></div></td></tr><tr><td style="font-weight:bold;vertical-align:top">expires</td><td valign="top">:</td><td><div></div></td></tr><tr><td style="font-weight:bold;vertical-align:top">httponly</td><td valign="top">:</td><td><div></div></td></tr><tr><td style="font-weight:bold;vertical-align:top">max-age</td><td valign="top">:</td><td><div></div></td></tr><tr><td style="font-weight:bold;vertical-align:top">path</td><td valign="top">:</td><td><div></div></td></tr><tr><td style="font-weight:bold;vertical-align:top">secure</td><td valign="top">:</td><td><div></div></td></tr><tr><td style="font-weight:bold;vertical-align:top">version</td><td valign="top">:</td><td><div></div></td></tr></table></div></td></tr><tr><td style="font-weight:bold;vertical-align:top">session_id_admin</td><td valign="top">:</td><td><div>192.225.182.66-d8a3b0ac-69b3-4120-8653-65682fba0015<table><tr><td style="font-weight:bold;vertical-align:top">comment</td><td valign="top">:</td><td><div></div></td></tr><tr><td style="font-weight:bold;vertical-align:top">domain</td><td valign="top">:</td><td><div></div></td></tr><tr><td style="font-weight:bold;vertical-align:top">expires</td><td valign="top">:</td><td><div></div></td></tr><tr><td style="font-weight:bold;vertical-align:top">httponly</td><td valign="top">:</td><td><div></div></td></tr><tr><td style="font-weight:bold;vertical-align:top">max-age</td><td valign="top">:</td><td><div></div></td></tr><tr><td style="font-weight:bold;vertical-align:top">path</td><td valign="top">:</td><td><div></div></td></tr><tr><td style="font-weight:bold;vertical-align:top">secure</td><td valign="top">:</td><td><div></div></td></tr><tr><td style="font-weight:bold;vertical-align:top">version</td><td valign="top">:</td><td><div></div></td></tr></table></div></td></tr><tr><td style="font-weight:bold;vertical-align:top">session_id_siri_admin</td><td valign="top">:</td><td><div>192.225.182.66-3a4789cb-f4e7-40b4-a610-b7f13c808316<table><tr><td style="font-weight:bold;vertical-align:top">comment</td><td valign="top">:</td><td><div></div></td></tr><tr><td style="font-weight:bold;vertical-align:top">domain</td><td valign="top">:</td><td><div></div></td></tr><tr><td style="font-weight:bold;vertical-align:top">expires</td><td valign="top">:</td><td><div></div></td></tr><tr><td style="font-weight:bold;vertical-align:top">httponly</td><td valign="top">:</td><td><div></div></td></tr><tr><td style="font-weight:bold;vertical-align:top">max-age</td><td valign="top">:</td><td><div></div></td></tr><tr><td style="font-weight:bold;vertical-align:top">path</td><td valign="top">:</td><td><div></div></td></tr><tr><td style="font-weight:bold;vertical-align:top">secure</td><td valign="top">:</td><td><div></div></td></tr><tr><td style="font-weight:bold;vertical-align:top">version</td><td valign="top">:</td><td><div></div></td></tr></table></div></td></tr></table></div></td></tr><tr><td style="font-weight:bold;vertical-align:top">env</td><td valign="top">:</td><td><div><table><tr><td style="font-weight:bold;vertical-align:top">app_folders</td><td valign="top">:</td><td><div>set([&#x27;/home/SIRI/web2py/applications/examples/&#x27;, &#x27;/home/SIRI/web2py/applications/siri_admin/&#x27;, &#x27;/home/SIRI/web2py/applications/admin/&#x27;])</div></td></tr><tr><td style="font-weight:bold;vertical-align:top">applications_parent</td><td valign="top">:</td><td><div>/home/SIRI/web2py</div></td></tr><tr><td style="font-weight:bold;vertical-align:top">content_length</td><td valign="top">:</td><td><div></div></td></tr><tr><td style="font-weight:bold;vertical-align:top">content_type</td><td valign="top">:</td><td><div></div></td></tr><tr><td style="font-weight:bold;vertical-align:top">db_sessions</td><td valign="top">:</td><td><div>set([])</div></td></tr><tr><td style="font-weight:bold;vertical-align:top">debugging</td><td valign="top">:</td><td><div>False</div></td></tr><tr><td style="font-weight:bold;vertical-align:top">document_root</td><td valign="top">:</td><td><div>/usr/share/nginx/html</div></td></tr><tr><td style="font-weight:bold;vertical-align:top">gluon_parent</td><td valign="top">:</td><td><div>/home/SIRI/web2py</div></td></tr><tr><td style="font-weight:bold;vertical-align:top">http_accept</td><td valign="top">:</td><td><div>text/html,application/xhtml+xml,application/xml;q=0.9,*/*;q=0.8</div></td></tr><tr><td style="font-weight:bold;vertical-align:top">http_accept_encoding</td><td valign="top">:</td><td><div>gzip, deflate</div></td></tr><tr><td style="font-weight:bold;vertical-align:top">http_accept_language</td><td valign="top">:</td><td><div>en-US,en;q=0.5</div></td></tr><tr><td style="font-weight:bold;vertical-align:top">http_cache_control</td><td valign="top">:</td><td><div>max-age=0</div></td></tr><tr><td style="font-weight:bold;vertical-align:top">http_connection</td><td valign="top">:</td><td><div>close</div></td></tr><tr><td style="font-weight:bold;vertical-align:top">http_cookie</td><td valign="top">:</td><td><div>__utma=133430031.1333926040.1377126199.1379435325.1381434783.14; __utmz=133430031.1377213648.6.2.utmcsr=google|utmccn=(organic)|utmcmd=organic|utmctr=(not%20provided); __utmc=133430031; session_data_examples=&quot;0e0fe0b73045683cd3678555e9fd26cb:tbv4jnU6Tn7Xd9rWwnd0M3NC0t-iqnhRXZhM7GLxKydvHl-UYHgM9n4cpiox05v8perogZEdFwICovEqCOOZIIgJAZYUWOhfOrYg7o_S6ioE1VXqDboGwWxepVmiI23qG_GwIix0jbpWC0CjJ1Dg6RJ8jmHmujoD4Z0V48CxlOKvA03Jion14MA7gurlE7htey1XWpyhtV9Jun4fMijCi-nu0ZQRa0tYL4pkclhgTRKUMZI-R90zuvtM0H1BvjNXRuoxFq6QH2WTbcMpGHSq9BhR_FzNtA7Nqcbu60VgHkz6W0PMvlLSbSbWo3lj4zUX&quot;; session_id_siri_admin=192.225.182.66-3a4789cb-f4e7-40b4-a610-b7f13c808316; session_id_admin=192.225.182.66-d8a3b0ac-69b3-4120-8653-65682fba0015</div></td></tr><tr><td style="font-weight:bold;vertical-align:top">http_host</td><td valign="top">:</td><td><div>siri.pythonanywhere.com</div></td></tr><tr><td style="font-weight:bold;vertical-align:top">http_referer</td><td valign="top">:</td><td><div>https://siri.pythonanywhere.com/siri_admin/default/editproject/6</div></td></tr><tr><td style="font-weight:bold;vertical-align:top">http_user_agent</td><td valign="top">:</td><td><div>Mozilla/5.0 (Windows NT 6.1; WOW64; rv:24.0) Gecko/20100101 Firefox/24.0</div></td></tr><tr><td style="font-weight:bold;vertical-align:top">http_x_forwarded_for</td><td valign="top">:</td><td><div>192.225.182.66</div></td></tr><tr><td style="font-weight:bold;vertical-align:top">http_x_real_ip</td><td valign="top">:</td><td><div>192.225.182.66</div></td></tr><tr><td style="font-weight:bold;vertical-align:top">https</td><td valign="top">:</td><td><div>on</div></td></tr><tr><td style="font-weight:bold;vertical-align:top">is_jython</td><td valign="top">:</td><td><div>False</div></td></tr><tr><td style="font-weight:bold;vertical-align:top">is_pypy</td><td valign="top">:</td><td><div>False</div></td></tr><tr><td style="font-weight:bold;vertical-align:top">local_hosts</td><td valign="top">:</td><td><div><table><tr><td><div>::ffff:127.0.0.1</div></td></tr><tr><td><div>::1</div></td></tr><tr><td><div>50.19.109.98</div></td></tr><tr><td><div>127.0.0.1</div></td></tr><tr><td><div>glenn-liveweb2</div></td></tr><tr><td><div>siri.pythonanywhere.com</div></td></tr><tr><td><div>localhost</div></td></tr></table></div></td></tr><tr><td style="font-weight:bold;vertical-align:top">path_info</td><td valign="top">:</td><td><div>/siri_admin/default/manageprojects</div></td></tr><tr><td style="font-weight:bold;vertical-align:top">query_string</td><td valign="top">:</td><td><div></div></td></tr><tr><td style="font-weight:bold;vertical-align:top">remote_addr</td><td valign="top">:</td><td><div>10.124.50.5</div></td></tr><tr><td style="font-weight:bold;vertical-align:top">remote_port</td><td valign="top">:</td><td><div>41714</div></td></tr><tr><td style="font-weight:bold;vertical-align:top">request_method</td><td valign="top">:</td><td><div>GET</div></td></tr><tr><td style="font-weight:bold;vertical-align:top">request_uri</td><td valign="top">:</td><td><div>/siri_admin/default/manageprojects</div></td></tr><tr><td style="font-weight:bold;vertical-align:top">script_name</td><td valign="top">:</td><td><div></div></td></tr><tr><td style="font-weight:bold;vertical-align:top">server_name</td><td valign="top">:</td><td><div>siri.pythonanywhere.com</div></td></tr><tr><td style="font-weight:bold;vertical-align:top">server_port</td><td valign="top">:</td><td><div>443</div></td></tr><tr><td style="font-weight:bold;vertical-align:top">server_protocol</td><td valign="top">:</td><td><div>HTTP/1.1</div></td></tr><tr><td style="font-weight:bold;vertical-align:top">uwsgi_node</td><td valign="top">:</td><td><div>glenn-liveweb2</div></td></tr><tr><td style="font-weight:bold;vertical-align:top">uwsgi_version</td><td valign="top">:</td><td><div>1.9.16</div></td></tr><tr><td style="font-weight:bold;vertical-align:top">web2py_path</td><td valign="top">:</td><td><div>/home/SIRI/web2py</div></td></tr><tr><td style="font-weight:bold;vertical-align:top">web2py_version</td><td valign="top">:</td><td><div>2.5.1-stable+timestamp.2013.06.06.15.39.19</div></td></tr><tr><td style="font-weight:bold;vertical-align:top">wsgi_errors</td><td valign="top">:</td><td><div>&lt;uwsgi_file__bin_user_wsgi_wrapper.ErrorLogWrapper object at 0x3879690&gt;</div></td></tr><tr><td style="font-weight:bold;vertical-align:top">wsgi_file_wrapper</td><td valign="top">:</td><td><div>&lt;built-in function uwsgi_sendfile&gt;</div></td></tr><tr><td style="font-weight:bold;vertical-align:top">wsgi_input</td><td valign="top">:</td><td><div>&lt;uwsgi._Input object at 0x7f38a963c918&gt;</div></td></tr><tr><td style="font-weight:bold;vertical-align:top">wsgi_multiprocess</td><td valign="top">:</td><td><div>True</div></td></tr><tr><td style="font-weight:bold;vertical-align:top">wsgi_multithread</td><td valign="top">:</td><td><div>False</div></td></tr><tr><td style="font-weight:bold;vertical-align:top">wsgi_run_once</td><td valign="top">:</td><td><div>False</div></td></tr><tr><td style="font-weight:bold;vertical-align:top">wsgi_url_scheme</td><td valign="top">:</td><td><div>https</div></td></tr><tr><td style="font-weight:bold;vertical-align:top">wsgi_version</td><td valign="top">:</td><td><div><table><tr><td><div>1</div></td></tr><tr><td><div>0</div></td></tr></table></div></td></tr></table></div></td></tr><tr><td style="font-weight:bold;vertical-align:top">extension</td><td valign="top">:</td><td><div>html</div></td></tr><tr><td style="font-weight:bold;vertical-align:top">folder</td><td valign="top">:</td><td><div>/home/SIRI/web2py/applications/siri_admin/</div></td></tr><tr><td style="font-weight:bold;vertical-align:top">function</td><td valign="top">:</td><td><div>manageprojects</div></td></tr><tr><td style="font-weight:bold;vertical-align:top">get_vars</td><td valign="top">:</td><td><div><table></table></div></td></tr><tr><td style="font-weight:bold;vertical-align:top">global_settings</td><td valign="top">:</td><td><div><table><tr><td style="font-weight:bold;vertical-align:top">app_folders</td><td valign="top">:</td><td><div>set([&#x27;/home/SIRI/web2py/applications/examples/&#x27;, &#x27;/home/SIRI/web2py/applications/siri_admin/&#x27;, &#x27;/home/SIRI/web2py/applications/admin/&#x27;])</div></td></tr><tr><td style="font-weight:bold;vertical-align:top">applications_parent</td><td valign="top">:</td><td><div>/home/SIRI/web2py</div></td></tr><tr><td style="font-weight:bold;vertical-align:top">db_sessions</td><td valign="top">:</td><td><div>set([])</div></td></tr><tr><td style="font-weight:bold;vertical-align:top">debugging</td><td valign="top">:</td><td><div>False</div></td></tr><tr><td style="font-weight:bold;vertical-align:top">gluon_parent</td><td valign="top">:</td><td><div>/home/SIRI/web2py</div></td></tr><tr><td style="font-weight:bold;vertical-align:top">is_jython</td><td valign="top">:</td><td><div>False</div></td></tr><tr><td style="font-weight:bold;vertical-align:top">is_pypy</td><td valign="top">:</td><td><div>False</div></td></tr><tr><td style="font-weight:bold;vertical-align:top">local_hosts</td><td valign="top">:</td><td><div><table><tr><td><div>::ffff:127.0.0.1</div></td></tr><tr><td><div>::1</div></td></tr><tr><td><div>50.19.109.98</div></td></tr><tr><td><div>127.0.0.1</div></td></tr><tr><td><div>glenn-liveweb2</div></td></tr><tr><td><div>siri.pythonanywhere.com</div></td></tr><tr><td><div>localhost</div></td></tr></table></div></td></tr><tr><td style="font-weight:bold;vertical-align:top">web2py_version</td><td valign="top">:</td><td><div>2.5.1-stable+timestamp.2013.06.06.15.39.19</div></td></tr></table></div></td></tr><tr><td style="font-weight:bold;vertical-align:top">is_https</td><td valign="top">:</td><td><div>True</div></td></tr><tr><td style="font-weight:bold;vertical-align:top">is_local</td><td valign="top">:</td><td><div>False</div></td></tr><tr><td style="font-weight:bold;vertical-align:top">is_restful</td><td valign="top">:</td><td><div>False</div></td></tr><tr><td style="font-weight:bold;vertical-align:top">now</td><td valign="top">:</td><td><div>datetime.datetime(2013, 10, 11, 17, 57, 12, 332521)</div></td></tr><tr><td style="font-weight:bold;vertical-align:top">post_vars</td><td valign="top">:</td><td><div><table></table></div></td></tr><tr><td style="font-weight:bold;vertical-align:top">raw_args</td><td valign="top">:</td><td><div></div></td></tr><tr><td style="font-weight:bold;vertical-align:top">raw_extension</td><td valign="top">:</td><td><div>None</div></td></tr><tr><td style="font-weight:bold;vertical-align:top">url</td><td valign="top">:</td><td><div>/siri_admin/default/manageprojects</div></td></tr><tr><td style="font-weight:bold;vertical-align:top">utcnow</td><td valign="top">:</td><td><div>datetime.datetime(2013, 10, 11, 17, 57, 12, 332548)</div></td></tr><tr><td style="font-weight:bold;vertical-align:top">uuid</td><td valign="top">:</td><td><div>siri_admin/192.225.182.66.2013-10-11.17-57-12.cfcd68b6-74f9-4607-82ee-2256fe56893b</div></td></tr><tr><td style="font-weight:bold;vertical-align:top">vars</td><td valign="top">:</td><td><div><table></table></div></td></tr><tr><td style="font-weight:bold;vertical-align:top">wsgi</td><td valign="top">:</td><td><div><table><tr><td style="font-weight:bold;vertical-align:top">environ</td><td valign="top">:</td><td><div><table><tr><td style="font-weight:bold;vertical-align:top">CONTENT_LENGTH</td><td valign="top">:</td><td><div></div></td></tr><tr><td style="font-weight:bold;vertical-align:top">CONTENT_TYPE</td><td valign="top">:</td><td><div></div></td></tr><tr><td style="font-weight:bold;vertical-align:top">DOCUMENT_ROOT</td><td valign="top">:</td><td><div>/usr/share/nginx/html</div></td></tr><tr><td style="font-weight:bold;vertical-align:top">HTTPS</td><td valign="top">:</td><td><div>on</div></td></tr><tr><td style="font-weight:bold;vertical-align:top">HTTP_ACCEPT</td><td valign="top">:</td><td><div>text/html,application/xhtml+xml,application/xml;q=0.9,*/*;q=0.8</div></td></tr><tr><td style="font-weight:bold;vertical-align:top">HTTP_ACCEPT_ENCODING</td><td valign="top">:</td><td><div>gzip, deflate</div></td></tr><tr><td style="font-weight:bold;vertical-align:top">HTTP_ACCEPT_LANGUAGE</td><td valign="top">:</td><td><div>en-US,en;q=0.5</div></td></tr><tr><td style="font-weight:bold;vertical-align:top">HTTP_CACHE_CONTROL</td><td valign="top">:</td><td><div>max-age=0</div></td></tr><tr><td style="font-weight:bold;vertical-align:top">HTTP_CONNECTION</td><td valign="top">:</td><td><div>close</div></td></tr><tr><td style="font-weight:bold;vertical-align:top">HTTP_COOKIE</td><td valign="top">:</td><td><div>__utma=133430031.1333926040.1377126199.1379435325.1381434783.14; __utmz=133430031.1377213648.6.2.utmcsr=google|utmccn=(organic)|utmcmd=organic|utmctr=(not%20provided); __utmc=133430031; session_data_examples=&quot;0e0fe0b73045683cd3678555e9fd26cb:tbv4jnU6Tn7Xd9rWwnd0M3NC0t-iqnhRXZhM7GLxKydvHl-UYHgM9n4cpiox05v8perogZEdFwICovEqCOOZIIgJAZYUWOhfOrYg7o_S6ioE1VXqDboGwWxepVmiI23qG_GwIix0jbpWC0CjJ1Dg6RJ8jmHmujoD4Z0V48CxlOKvA03Jion14MA7gurlE7htey1XWpyhtV9Jun4fMijCi-nu0ZQRa0tYL4pkclhgTRKUMZI-R90zuvtM0H1BvjNXRuoxFq6QH2WTbcMpGHSq9BhR_FzNtA7Nqcbu60VgHkz6W0PMvlLSbSbWo3lj4zUX&quot;; session_id_siri_admin=192.225.182.66-3a4789cb-f4e7-40b4-a610-b7f13c808316; session_id_admin=192.225.182.66-d8a3b0ac-69b3-4120-8653-65682fba0015</div></td></tr><tr><td style="font-weight:bold;vertical-align:top">HTTP_HOST</td><td valign="top">:</td><td><div>siri.pythonanywhere.com</div></td></tr><tr><td style="font-weight:bold;vertical-align:top">HTTP_REFERER</td><td valign="top">:</td><td><div>https://siri.pythonanywhere.com/siri_admin/default/editproject/6</div></td></tr><tr><td style="font-weight:bold;vertical-align:top">HTTP_USER_AGENT</td><td valign="top">:</td><td><div>Mozilla/5.0 (Windows NT 6.1; WOW64; rv:24.0) Gecko/20100101 Firefox/24.0</div></td></tr><tr><td style="font-weight:bold;vertical-align:top">HTTP_X_FORWARDED_FOR</td><td valign="top">:</td><td><div>192.225.182.66</div></td></tr><tr><td style="font-weight:bold;vertical-align:top">HTTP_X_REAL_IP</td><td valign="top">:</td><td><div>192.225.182.66</div></td></tr><tr><td style="font-weight:bold;vertical-align:top">PATH_INFO</td><td valign="top">:</td><td><div>/siri_admin/default/manageprojects</div></td></tr><tr><td style="font-weight:bold;vertical-align:top">QUERY_STRING</td><td valign="top">:</td><td><div></div></td></tr><tr><td style="font-weight:bold;vertical-align:top">REMOTE_ADDR</td><td valign="top">:</td><td><div>10.124.50.5</div></td></tr><tr><td style="font-weight:bold;vertical-align:top">REMOTE_PORT</td><td valign="top">:</td><td><div>41714</div></td></tr><tr><td style="font-weight:bold;vertical-align:top">REQUEST_METHOD</td><td valign="top">:</td><td><div>GET</div></td></tr><tr><td style="font-weight:bold;vertical-align:top">REQUEST_URI</td><td valign="top">:</td><td><div>/siri_admin/default/manageprojects</div></td></tr><tr><td style="font-weight:bold;vertical-align:top">SCRIPT_NAME</td><td valign="top">:</td><td><div></div></td></tr><tr><td style="font-weight:bold;vertical-align:top">SERVER_NAME</td><td valign="top">:</td><td><div>siri.pythonanywhere.com</div></td></tr><tr><td style="font-weight:bold;vertical-align:top">SERVER_PORT</td><td valign="top">:</td><td><div>443</div></td></tr><tr><td style="font-weight:bold;vertical-align:top">SERVER_PROTOCOL</td><td valign="top">:</td><td><div>HTTP/1.1</div></td></tr><tr><td style="font-weight:bold;vertical-align:top">uwsgi.node</td><td valign="top">:</td><td><div>glenn-liveweb2</div></td></tr><tr><td style="font-weight:bold;vertical-align:top">uwsgi.version</td><td valign="top">:</td><td><div>1.9.16</div></td></tr><tr><td style="font-weight:bold;vertical-align:top">wsgi.errors</td><td valign="top">:</td><td><div>&lt;uwsgi_file__bin_user_wsgi_wrapper.ErrorLogWrapper object at 0x3879690&gt;</div></td></tr><tr><td style="font-weight:bold;vertical-align:top">wsgi.file_wrapper</td><td valign="top">:</td><td><div>&lt;built-in function uwsgi_sendfile&gt;</div></td></tr><tr><td style="font-weight:bold;vertical-align:top">wsgi.input</td><td valign="top">:</td><td><div>&lt;cStringIO.StringO object at 0x480f810&gt;</div></td></tr><tr><td style="font-weight:bold;vertical-align:top">wsgi.multiprocess</td><td valign="top">:</td><td><div>True</div></td></tr><tr><td style="font-weight:bold;vertical-align:top">wsgi.multithread</td><td valign="top">:</td><td><div>False</div></td></tr><tr><td style="font-weight:bold;vertical-align:top">wsgi.run_once</td><td valign="top">:</td><td><div>False</div></td></tr><tr><td style="font-weight:bold;vertical-align:top">wsgi.url_scheme</td><td valign="top">:</td><td><div>https</div></td></tr><tr><td style="font-weight:bold;vertical-align:top">wsgi.version</td><td valign="top">:</td><td><div>1</div></td></tr></table></div></td></tr></table></div></td></tr></table></div>'
tRp70
sS'frames'
p71
(lp72
(dp73
S'file'
p74
S'/home/SIRI/web2py/gluon/restricted.py'
p75
sS'dump'
p76
(dp77
S'environment'
p78
S"{'A': <class 'gluon.html.A'>, 'ANY_OF': <class 'gluon.validators.ANY_OF'>, 'Auth': <class 'gluon.tools.Auth'>, 'B': <class 'gluon.html.B'>, 'BEAUTIFY': <class 'gluon.html.BEAUTIFY'>, 'BODY': <class 'gluon.html.BODY'>, 'BR': <class 'gluon.html.BR'>, 'BUTTON': <class 'gluon.html.BUTTON'>, 'CAT': <class 'gluon.html.CAT'>, 'CENTER': <class 'gluon.html.CENTER'>, ...}"
p79
sS'ccode'
p80
S'<code object <module> at 0x51e3730, file "/home/...ions/siri_admin/controllers/default.py", line 13>'
p81
ssS'lnum'
p82
I212
sS'lines'
p83
(dp84
I207
S'    try:'
p85
sI208
S'        if isinstance(code, types.CodeType):'
p86
sI209
S'            ccode = code'
p87
sI210
S'        else:'
p88
sI211
S'            ccode = compile2(code, layer)'
p89
sI212
S'        exec ccode in environment'
p90
sI213
S'    except HTTP:'
p91
sI214
S'        raise'
p92
sI215
S'    except RestrictedError:'
p93
sI216
S'        # do not encapsulate (obfuscate) the original RestrictedError'
p94
ssS'call'
p95
S"(code='# -*- coding: utf-8 -*-\\n# this file is released ...\\nresponse._vars=response._caller(manageprojects)\\n', environment={'A': <class 'gluon.html.A'>, 'ANY_OF': <class 'gluon.validators.ANY_OF'>, 'Auth': <class 'gluon.tools.Auth'>, 'B': <class 'gluon.html.B'>, 'BEAUTIFY': <class 'gluon.html.BEAUTIFY'>, 'BODY': <class 'gluon.html.BODY'>, 'BR': <class 'gluon.html.BR'>, 'BUTTON': <class 'gluon.html.BUTTON'>, 'CAT': <class 'gluon.html.CAT'>, 'CENTER': <class 'gluon.html.CENTER'>, ...}, layer='/home/SIRI/web2py/applications/siri_admin/controllers/default.py')"
p96
sS'func'
p97
S'restricted'
p98
sa(dp99
g74
S'/home/SIRI/web2py/applications/siri_admin/controllers/default.py'
p100
sg76
(dp101
sg82
I406
sg83
(dp102
I395
S''
sI396
S'def fsshowstudents():'
p103
sI397
S'    """'
p104
sI398
S'    Shows a list of all students'
p105
sI399
S'    **** need to figure out how to filter it'
p106
sI400
S'    """'
p107
sI401
S"    response.flash = 'Please choose a student to edit'"
p108
sI402
S'    query = (db.fs_volunteers)'
p109
sI403
S'    students = db(query).select()'
p110
sI404
S'    return dict(students = students)'
p111
ssg95
S'()'
p112
sg97
S'<module>'
p113
sa(dp114
g74
S'/home/SIRI/web2py/gluon/globals.py'
p115
sg76
(dp116
S'self'
p117
S'undefined'
p118
sS'f'
S'<function manageprojects>'
p119
ssg82
I194
sg83
(dp120
I192
S"        self.delimiters = ('{{', '}}')"
p121
sI193
S'        self._vars = None'
p122
sI194
S'        self._caller = lambda f: f()'
p123
sI195
S'        self._view_environment = None'
p124
sI196
S'        self._custom_commit = None'
p125
sI197
S'        self._custom_rollback = None'
p126
sI198
S''
sI189
S'        self.menu = []             # used by the default view layout'
p127
sI190
S'        self.files = []            # used by web2py_ajax.html'
p128
sI191
S'        self.generic_patterns = []  # patterns to allow generic views'
p129
ssg95
S'(f=<function manageprojects>)'
p130
sg97
S'<lambda>'
p131
sa(dp132
g74
S'/home/SIRI/web2py/gluon/tools.py'
p133
sg76
(dp134
S'action'
p135
S'<function manageprojects>'
p136
sS'a'
S'()'
p137
sS'b'
g21
ssg82
I3022
sg83
(dp138
I3017
S'                    flag = condition'
p139
sI3018
S'                if not flag:'
p140
sI3019
S'                    current.session.flash = self.messages.access_denied'
p141
sI3020
S'                    return call_or_redirect('
p142
sI3021
S'                        self.settings.on_failed_authorization)'
p143
sI3022
S'                return action(*a, **b)'
p144
sI3023
S'            f.__doc__ = action.__doc__'
p145
sI3024
S'            f.__name__ = action.__name__'
p146
sI3025
S'            f.__dict__.update(action.__dict__)'
p147
sI3026
S'            return f'
p148
ssg95
S'(*a=(), **b={})'
p149
sg97
S'f'
sa(dp150
g74
S'/home/SIRI/web2py/applications/siri_admin/controllers/default.py'
p151
sg76
(dp152
S'db.siri_projects'
p153
S'<Table siri_projects (id,project_name,project_de...ject_reviewed,project_contracted,project_active)>'
p154
sS'builtinFalse'
p155
S'False'
p156
sS').select'
p157
g118
sS'project_reviewed'
p158
g118
sS'reviewProjects'
p159
g118
sS'global db'
p160
S'<DAL uri="sqlite://storage.sqlite">'
p161
ssg82
I202
sg83
(dp162
I197
S"        response.flash = 'There was an error on the form'"
p163
sI198
S'    else:'
p164
sI199
S"        response.flash = 'Welcome ' + session.auth.user.first_name + ' your id is: ' + str(session.auth.user.id)"
p165
sI200
S''
sI201
S'    projects = db(db.siri_projects).select()'
p166
sI202
S'    reviewProjects = db(db.siri_projects).select(project_reviewed=False)'
p167
sI203
S''
sI204
S'    for project in projects:'
p168
sI205
S'        if len(project.project_desc) > 75:'
p169
sI206
S"            project.project_desc = project.project_desc[:75] + '...'"
p170
ssg95
S'()'
p171
sg97
S'manageprojects'
p172
sa(dp173
g74
S'/home/SIRI/web2py/gluon/dal.py'
p174
sg76
(dp175
S'self.query'
p176
S'<Query (siri_projects.id IS NOT NULL)>'
p177
sS'adapter.select'
p178
S'<bound method SQLiteAdapter.select of <gluon.dal.SQLiteAdapter object>>'
p179
sS'fields'
p180
S'[<gluon.dal.Field object>, <gluon.dal.Field object>, <gluon.dal.Field object>, <gluon.dal.Field object>, <gluon.dal.Field object>, <gluon.dal.Field object>, <gluon.dal.Field object>, <gluon.dal.Field object>, <gluon.dal.Field object>, <gluon.dal.Field object>, <gluon.dal.Field object>, <gluon.dal.Field object>, <gluon.dal.Field object>]'
p181
sS'adapter'
p182
S'<gluon.dal.SQLiteAdapter object>'
p183
sS'attributes'
p184
S"{'project_reviewed': False}"
p185
sS'self'
p186
S'<Set (siri_projects.id IS NOT NULL)>'
p187
ssg82
I9958
sg83
(dp188
I9953
S"                                    attributes.get('join',None),"
p189
sI9954
S"                                    attributes.get('left',None),"
p190
sI9955
S"                                    attributes.get('orderby',None),"
p191
sI9956
S"                                    attributes.get('groupby',None))"
p192
sI9957
S'        fields = adapter.expand_all(fields, tablenames)'
p193
sI9958
S'        return adapter.select(self.query,fields,attributes)'
p194
sI9959
S''
sI9960
S'    def nested_select(self,*fields,**attributes):'
p195
sI9961
S'        return Expression(self.db,self._select(*fields,**attributes))'
p196
sI9962
S''
ssg95
S"(self=<Set (siri_projects.id IS NOT NULL)>, *fields=[<gluon.dal.Field object>, <gluon.dal.Field object>, <gluon.dal.Field object>, <gluon.dal.Field object>, <gluon.dal.Field object>, <gluon.dal.Field object>, <gluon.dal.Field object>, <gluon.dal.Field object>, <gluon.dal.Field object>, <gluon.dal.Field object>, <gluon.dal.Field object>, <gluon.dal.Field object>, <gluon.dal.Field object>], **attributes={'project_reviewed': False})"
p197
sg97
S'select'
p198
sa(dp199
g74
S'/home/SIRI/web2py/gluon/dal.py'
p200
sg76
(dp201
S'fields'
p202
S'[<gluon.dal.Field object>, <gluon.dal.Field object>, <gluon.dal.Field object>, <gluon.dal.Field object>, <gluon.dal.Field object>, <gluon.dal.Field object>, <gluon.dal.Field object>, <gluon.dal.Field object>, <gluon.dal.Field object>, <gluon.dal.Field object>, <gluon.dal.Field object>, <gluon.dal.Field object>, <gluon.dal.Field object>]'
p203
sS'self'
p204
S'<gluon.dal.SQLiteAdapter object>'
p205
sS').select'
p206
S'<bound method SQLiteAdapter.select of <gluon.dal.SQLiteAdapter object>>'
p207
sS'attributes'
p208
S"{'project_reviewed': False}"
p209
sS'global SQLiteAdapter'
p210
S"<class 'gluon.dal.SQLiteAdapter'>"
p211
sS'query'
p212
S'<Query (siri_projects.id IS NOT NULL)>'
p213
sS'builtinsuper'
p214
S"<type 'super'>"
p215
ssg82
I2245
sg83
(dp216
I2240
S'        Note that the entire database, rather than one record, is locked'
p217
sI2241
S'        (it will be locked eventually anyway by the following UPDATE).'
p218
sI2242
S'        """'
p219
sI2243
S"        if attributes.get('for_update', False) and not 'cache' in attributes:"
p220
sI2244
S"            self.execute('BEGIN IMMEDIATE TRANSACTION;')"
p221
sI2245
S'        return super(SQLiteAdapter, self).select(query, fields, attributes)'
p222
sI2246
S''
sI2247
S'class SpatiaLiteAdapter(SQLiteAdapter):'
p223
sI2248
S"    drivers = ('sqlite3','sqlite2')"
p224
sI2249
S''
ssg95
S"(self=<gluon.dal.SQLiteAdapter object>, query=<Query (siri_projects.id IS NOT NULL)>, fields=[<gluon.dal.Field object>, <gluon.dal.Field object>, <gluon.dal.Field object>, <gluon.dal.Field object>, <gluon.dal.Field object>, <gluon.dal.Field object>, <gluon.dal.Field object>, <gluon.dal.Field object>, <gluon.dal.Field object>, <gluon.dal.Field object>, <gluon.dal.Field object>, <gluon.dal.Field object>, <gluon.dal.Field object>], attributes={'project_reviewed': False})"
p225
sg97
g198
sa(dp226
g74
S'/home/SIRI/web2py/gluon/dal.py'
p227
sg76
(dp228
S'self._select'
p229
S'<bound method SQLiteAdapter._select of <gluon.dal.SQLiteAdapter object>>'
p230
sS'fields'
p231
S'[<gluon.dal.Field object>, <gluon.dal.Field object>, <gluon.dal.Field object>, <gluon.dal.Field object>, <gluon.dal.Field object>, <gluon.dal.Field object>, <gluon.dal.Field object>, <gluon.dal.Field object>, <gluon.dal.Field object>, <gluon.dal.Field object>, <gluon.dal.Field object>, <gluon.dal.Field object>, <gluon.dal.Field object>]'
p232
sS'self'
p233
S'<gluon.dal.SQLiteAdapter object>'
p234
sS'sql'
p235
g118
sS'query'
p236
S'<Query (siri_projects.id IS NOT NULL)>'
p237
sS'attributes'
p238
S"{'project_reviewed': False}"
p239
ssg82
I1691
sg83
(dp240
I1686
S''
sI1687
S'    def select(self, query, fields, attributes):'
p241
sI1688
S'        """'
p242
sI1689
S'        Always returns a Rows object, possibly empty.'
p243
sI1690
S'        """'
p244
sI1691
S'        sql = self._select(query, fields, attributes)'
p245
sI1692
S"        cache = attributes.get('cache', None)"
p246
sI1693
S"        if cache and attributes.get('cacheable',False):"
p247
sI1694
S"            del attributes['cache']"
p248
sI1695
S'            (cache_model, time_expire) = cache'
p249
ssg95
S"(self=<gluon.dal.SQLiteAdapter object>, query=<Query (siri_projects.id IS NOT NULL)>, fields=[<gluon.dal.Field object>, <gluon.dal.Field object>, <gluon.dal.Field object>, <gluon.dal.Field object>, <gluon.dal.Field object>, <gluon.dal.Field object>, <gluon.dal.Field object>, <gluon.dal.Field object>, <gluon.dal.Field object>, <gluon.dal.Field object>, <gluon.dal.Field object>, <gluon.dal.Field object>, <gluon.dal.Field object>], attributes={'project_reviewed': False})"
p250
sg97
g198
sa(dp251
g74
S'/home/SIRI/web2py/gluon/dal.py'
p252
sg76
(dp253
S'builtinSyntaxError'
p254
S"<type 'exceptions.SyntaxError'>"
p255
sS'key'
p256
S"'project_reviewed'"
p257
ssg82
I1523
sg83
(dp258
I1518
S'        return new_fields'
p259
sI1519
S''
sI1520
S'    def _select(self, query, fields, attributes):'
p260
sI1521
S'        tables = self.tables'
p261
sI1522
S'        for key in set(attributes.keys())-SELECT_ARGS:'
p262
sI1523
S"            raise SyntaxError('invalid select attribute: %s' % key)"
p263
sI1524
S'        args_get = attributes.get'
p264
sI1525
S'        tablenames = tables(query)'
p265
sI1526
S'        tablenames_for_common_filters = tablenames'
p266
sI1527
S'        for field in fields:'
p267
ssg95
S"(self=<gluon.dal.SQLiteAdapter object>, query=<Query (siri_projects.id IS NOT NULL)>, fields=[<gluon.dal.Field object>, <gluon.dal.Field object>, <gluon.dal.Field object>, <gluon.dal.Field object>, <gluon.dal.Field object>, <gluon.dal.Field object>, <gluon.dal.Field object>, <gluon.dal.Field object>, <gluon.dal.Field object>, <gluon.dal.Field object>, <gluon.dal.Field object>, <gluon.dal.Field object>, <gluon.dal.Field object>], attributes={'project_reviewed': False})"
p268
sg97
S'_select'
p269
sasS'pyver'
p270
S'Python 2.7.4: /usr/local/bin/uwsgi (prefix: /usr)'
p271
sS'session'
p272
g69
(S's\xf3\x08\x00\x00<div><table><tr><td style="font-weight:bold;vertical-align:top">auth</td><td valign="top">:</td><td><div><table><tr><td style="font-weight:bold;vertical-align:top">expiration</td><td valign="top">:</td><td><div>3600</div></td></tr><tr><td style="font-weight:bold;vertical-align:top">hmac_key</td><td valign="top">:</td><td><div>f42acb5f-d32c-421b-9e01-64b673086b9e</div></td></tr><tr><td style="font-weight:bold;vertical-align:top">last_visit</td><td valign="top">:</td><td><div>datetime.datetime(2013, 10, 11, 17, 54, 17, 276167)</div></td></tr><tr><td style="font-weight:bold;vertical-align:top">remember</td><td valign="top">:</td><td><div>False</div></td></tr><tr><td style="font-weight:bold;vertical-align:top">user</td><td valign="top">:</td><td><div><table><tr><td style="font-weight:bold;vertical-align:top">email</td><td valign="top">:</td><td><div>evancaldwell@yahoo.com</div></td></tr><tr><td style="font-weight:bold;vertical-align:top">first_name</td><td valign="top">:</td><td><div>Evan</div></td></tr><tr><td style="font-weight:bold;vertical-align:top">id</td><td valign="top">:</td><td><div>1L</div></td></tr><tr><td style="font-weight:bold;vertical-align:top">last_name</td><td valign="top">:</td><td><div>Caldwell</div></td></tr><tr><td style="font-weight:bold;vertical-align:top">registration_id</td><td valign="top">:</td><td><div></div></td></tr><tr><td style="font-weight:bold;vertical-align:top">registration_key</td><td valign="top">:</td><td><div></div></td></tr><tr><td style="font-weight:bold;vertical-align:top">reset_password_key</td><td valign="top">:</td><td><div></div></td></tr></table></div></td></tr><tr><td style="font-weight:bold;vertical-align:top">user_groups</td><td valign="top">:</td><td><div><table><tr><td style="font-weight:bold;vertical-align:top">1</td><td valign="top">:</td><td><div>user_1</div></td></tr></table></div></td></tr></table></div></td></tr><tr><td style="font-weight:bold;vertical-align:top">flash</td><td valign="top">:</td><td><div>None</div></td></tr><tr><td style="font-weight:bold;vertical-align:top">last_orderby</td><td valign="top">:</td><td><div>None</div></td></tr><tr><td style="font-weight:bold;vertical-align:top">last_query</td><td valign="top">:</td><td><div>db.auth_membership.id&gt;0</div></td></tr></table></div>'
tRp273
sS'etype'
p274
S"<type 'exceptions.SyntaxError'>"
p275
sS'date'
p276
S'Fri Oct 11 17:57:12 2013'
p277
sS'response'
p278
g69
(S's\xf6,\x00\x00<div><table><tr><td style="font-weight:bold;vertical-align:top">body</td><td valign="top">:</td><td><div>&lt;cStringIO.StringO object at 0x5698030&gt;</div></td></tr><tr><td style="font-weight:bold;vertical-align:top">cookies</td><td valign="top">:</td><td><div><table><tr><td style="font-weight:bold;vertical-align:top">session_id_siri_admin</td><td valign="top">:</td><td><div>192.225.182.66-3a4789cb-f4e7-40b4-a610-b7f13c808316<table><tr><td style="font-weight:bold;vertical-align:top">comment</td><td valign="top">:</td><td><div></div></td></tr><tr><td style="font-weight:bold;vertical-align:top">domain</td><td valign="top">:</td><td><div></div></td></tr><tr><td style="font-weight:bold;vertical-align:top">expires</td><td valign="top">:</td><td><div></div></td></tr><tr><td style="font-weight:bold;vertical-align:top">httponly</td><td valign="top">:</td><td><div></div></td></tr><tr><td style="font-weight:bold;vertical-align:top">max-age</td><td valign="top">:</td><td><div></div></td></tr><tr><td style="font-weight:bold;vertical-align:top">path</td><td valign="top">:</td><td><div>/</div></td></tr><tr><td style="font-weight:bold;vertical-align:top">secure</td><td valign="top">:</td><td><div></div></td></tr><tr><td style="font-weight:bold;vertical-align:top">version</td><td valign="top">:</td><td><div></div></td></tr></table></div></td></tr></table></div></td></tr><tr><td style="font-weight:bold;vertical-align:top">delimiters</td><td valign="top">:</td><td><div><table><tr><td><div>{{</div></td></tr><tr><td><div>}}</div></td></tr></table></div></td></tr><tr><td style="font-weight:bold;vertical-align:top">files</td><td valign="top">:</td><td><div><table></table></div></td></tr><tr><td style="font-weight:bold;vertical-align:top">flash</td><td valign="top">:</td><td><div>Welcome Evan your id is: 1</div></td></tr><tr><td style="font-weight:bold;vertical-align:top">generic_patterns</td><td valign="top">:</td><td><div><table></table></div></td></tr><tr><td style="font-weight:bold;vertical-align:top">google_analytics_id</td><td valign="top">:</td><td><div>None</div></td></tr><tr><td style="font-weight:bold;vertical-align:top">headers</td><td valign="top">:</td><td><div><table><tr><td style="font-weight:bold;vertical-align:top">X-Powered-By</td><td valign="top">:</td><td><div>web2py</div></td></tr></table></div></td></tr><tr><td style="font-weight:bold;vertical-align:top">logo</td><td valign="top">:</td><td><div><a class="brand" href="/siri_admin/default/clockadmin"><b>SIRI</b>&trade;&nbsp;</a></div></td></tr><tr><td style="font-weight:bold;vertical-align:top">menu</td><td valign="top">:</td><td><div><table><tr><td><div><table><tr><td><div>Home</div></td></tr><tr><td><div>False</div></td></tr><tr><td><div>/siri_admin/default/index</div></td></tr><tr><td><div><table></table></div></td></tr></table></div></td></tr><tr><td><div><table><tr><td><div><span class="highlighted">web2py</span></div></td></tr><tr><td><div>False</div></td></tr><tr><td><div>http://web2py.com</div></td></tr><tr><td><div><table><tr><td><div><table><tr><td><div>My Sites</div></td></tr><tr><td><div>False</div></td></tr><tr><td><div>/admin/default/site</div></td></tr></table></div></td></tr><tr><td><div><table><tr><td><div>This App</div></td></tr><tr><td><div>False</div></td></tr><tr><td><div>/admin/default/design/siri_admin</div></td></tr><tr><td><div>[(&lt;lazyT &#x27;Controller&#x27;&gt;, False, &#x27;/admin/default/edit/siri_admin/controllers/default.py&#x27;), (&lt;lazyT &#x27;View&#x27;&gt;, False, &#x27;/admin/default/edit/siri_admin/views/default/manageprojects.html&#x27;), (&lt;lazyT &#x27;Layout&#x27;&gt;, False, &#x27;/admin/default/edit/siri_admin/views/layout.html&#x27;), (&lt;lazyT &#x27;Stylesheet&#x27;&gt;, False, &#x27;/admin/default/edit/siri_admin/static/css/web2py.css&#x27;), (&lt;lazyT &#x27;DB Model&#x27;&gt;, False, &#x27;/admin/default/edit/siri_admin/models/db.py&#x27;), (&lt;lazyT &#x27;Menu Model&#x27;&gt;, False, &#x27;/admin/default/edit/siri_admin/models/menu.py&#x27;), (&lt;lazyT &#x27;Database&#x27;&gt;, False, &#x27;/siri_admin/appadmin/index&#x27;), (&lt;lazyT &#x27;Errors&#x27;&gt;, False, &#x27;/admin/default/errors/siri_admin&#x27;), (&lt;lazyT &#x27;About&#x27;&gt;, False, &#x27;/admin/default/about/siri_admin&#x27;)]</div></td></tr></table></div></td></tr><tr><td><div><table><tr><td><div>web2py.com</div></td></tr><tr><td><div>False</div></td></tr><tr><td><div>http://www.web2py.com</div></td></tr><tr><td><div>[(&lt;lazyT &#x27;Download&#x27;&gt;, False, &#x27;http://www.web2py.com/examples/default/download&#x27;), (&lt;lazyT &#x27;Support&#x27;&gt;, False, &#x27;http://www.web2py.com/examples/default/support&#x27;), (&lt;lazyT &#x27;Demo&#x27;&gt;, False, &#x27;http://web2py.com/demo_admin&#x27;), (&lt;lazyT &#x27;Quick Examples&#x27;&gt;, False, &#x27;http://web2py.com/examples/default/examples&#x27;), (&lt;lazyT &#x27;FAQ&#x27;&gt;, False, &#x27;http://web2py.com/AlterEgo&#x27;), (&lt;lazyT &#x27;Videos&#x27;&gt;, False, &#x27;http://www.web2py.com/examples/default/videos/&#x27;), (&lt;lazyT &#x27;Free Applications&#x27;&gt;, False, &#x27;http://web2py.com/appliances&#x27;), (&lt;lazyT &#x27;Plugins&#x27;&gt;, False, &#x27;http://web2py.com/plugins&#x27;), (&lt;lazyT &#x27;Layouts&#x27;&gt;, False, &#x27;http://web2py.com/layouts&#x27;), (&lt;lazyT &#x27;Recipes&#x27;&gt;, False, &#x27;http://web2pyslices.com/&#x27;), (&lt;lazyT &#x27;Semantic&#x27;&gt;, False, &#x27;http://web2py.com/semantic&#x27;)]</div></td></tr></table></div></td></tr><tr><td><div><table><tr><td><div>Documentation</div></td></tr><tr><td><div>False</div></td></tr><tr><td><div>http://www.web2py.com/book</div></td></tr><tr><td><div>[(&lt;lazyT &#x27;Preface&#x27;&gt;, False, &#x27;http://www.web2py.com/book/default/chapter/00&#x27;), (&lt;lazyT &#x27;Introduction&#x27;&gt;, False, &#x27;http://www.web2py.com/book/default/chapter/01&#x27;), (&lt;lazyT &#x27;Python&#x27;&gt;, False, &#x27;http://www.web2py.com/book/default/chapter/02&#x27;), (&lt;lazyT &#x27;Overview&#x27;&gt;, False, &#x27;http://www.web2py.com/book/default/chapter/03&#x27;), (&lt;lazyT &#x27;The Core&#x27;&gt;, False, &#x27;http://www.web2py.com/book/default/chapter/04&#x27;), (&lt;lazyT &#x27;The Views&#x27;&gt;, False, &#x27;http://www.web2py.com/book/default/chapter/05&#x27;), (&lt;lazyT &#x27;Database&#x27;&gt;, False, &#x27;http://www.web2py.com/book/default/chapter/06&#x27;), (&lt;lazyT &#x27;Forms and Validators&#x27;&gt;, False, &#x27;http://www.web2py.com/book/default/chapter/07&#x27;), (&lt;lazyT &#x27;Email and SMS&#x27;&gt;, False, &#x27;http://www.web2py.com/book/default/chapter/08&#x27;), (&lt;lazyT &#x27;Access Control&#x27;&gt;, False, &#x27;http://www.web2py.com/book/default/chapter/09&#x27;), (&lt;lazyT &#x27;Services&#x27;&gt;, False, &#x27;http://www.web2py.com/book/default/chapter/10&#x27;), (&lt;lazyT &#x27;Ajax Recipes&#x27;&gt;, False, &#x27;http://www.web2py.com/book/default/chapter/11&#x27;), (&lt;lazyT &#x27;Components and Plugins&#x27;&gt;, False, &#x27;http://www.web2py.com/book/default/chapter/12&#x27;), (&lt;lazyT &#x27;Deployment Recipes&#x27;&gt;, False, &#x27;http://www.web2py.com/book/default/chapter/13&#x27;), (&lt;lazyT &#x27;Other Recipes&#x27;&gt;, False, &#x27;http://www.web2py.com/book/default/chapter/14&#x27;), (&lt;lazyT &#x27;Buy this book&#x27;&gt;, False, &#x27;http://stores.lulu.com/web2py&#x27;)]</div></td></tr></table></div></td></tr><tr><td><div><table><tr><td><div>Community</div></td></tr><tr><td><div>False</div></td></tr><tr><td><div>None</div></td></tr><tr><td><div>[(&lt;lazyT &#x27;Groups&#x27;&gt;, False, &#x27;http://www.web2py.com/examples/default/usergroups&#x27;), (&lt;lazyT &#x27;Twitter&#x27;&gt;, False, &#x27;http://twitter.com/web2py&#x27;), (&lt;lazyT &#x27;Live Chat&#x27;&gt;, False, &#x27;http://webchat.freenode.net/?channels=web2py&#x27;)]</div></td></tr></table></div></td></tr><tr><td><div><table><tr><td><div>Plugins</div></td></tr><tr><td><div>False</div></td></tr><tr><td><div>None</div></td></tr><tr><td><div>[(&#x27;plugin_wiki&#x27;, False, &#x27;http://web2py.com/examples/default/download&#x27;), (&lt;lazyT &#x27;Other Plugins&#x27;&gt;, False, &#x27;http://web2py.com/plugins&#x27;), (&lt;lazyT &#x27;Layout Plugins&#x27;&gt;, False, &#x27;http://web2py.com/layouts&#x27;)]</div></td></tr></table></div></td></tr></table></div></td></tr></table></div></td></tr></table></div></td></tr><tr><td style="font-weight:bold;vertical-align:top">meta</td><td valign="top">:</td><td><div><table><tr><td style="font-weight:bold;vertical-align:top">author</td><td valign="top">:</td><td><div>Evan Caldwell &lt;evancaldwell@yahoo.com&gt;</div></td></tr><tr><td style="font-weight:bold;vertical-align:top">description</td><td valign="top">:</td><td><div>A time clock for SIRI employees</div></td></tr><tr><td style="font-weight:bold;vertical-align:top">generator</td><td valign="top">:</td><td><div>Web2py Web Framework</div></td></tr><tr><td style="font-weight:bold;vertical-align:top">keywords</td><td valign="top">:</td><td><div>SIRI, time, clock</div></td></tr></table></div></td></tr><tr><td style="font-weight:bold;vertical-align:top">models_to_run</td><td valign="top">:</td><td><div><table><tr><td><div>^\\w+\\.py$</div></td></tr><tr><td><div>^default/\\w+\\.py$</div></td></tr><tr><td><div>^default/manageprojects/\\w+\\.py$</div></td></tr></table></div></td></tr><tr><td style="font-weight:bold;vertical-align:top">postprocessing</td><td valign="top">:</td><td><div><table></table></div></td></tr><tr><td style="font-weight:bold;vertical-align:top">session_cookie_expires</td><td valign="top">:</td><td><div>None</div></td></tr><tr><td style="font-weight:bold;vertical-align:top">session_data_name</td><td valign="top">:</td><td><div>session_data_siri_admin</div></td></tr><tr><td style="font-weight:bold;vertical-align:top">session_file</td><td valign="top">:</td><td><div>&lt;open file &#x27;/home/SIRI/web2py/applications/siri_admin/sessions/192.225.182.66-3a4789cb-f4e7-40b4-a610-b7f13c808316&#x27;, mode &#x27;rb+&#x27; at 0x51f6e40&gt;</div></td></tr><tr><td style="font-weight:bold;vertical-align:top">session_filename</td><td valign="top">:</td><td><div>/home/SIRI/web2py/applications/siri_admin/sessions/192.225.182.66-3a4789cb-f4e7-40b4-a610-b7f13c808316</div></td></tr><tr><td style="font-weight:bold;vertical-align:top">session_id</td><td valign="top">:</td><td><div>192.225.182.66-3a4789cb-f4e7-40b4-a610-b7f13c808316</div></td></tr><tr><td style="font-weight:bold;vertical-align:top">session_id_name</td><td valign="top">:</td><td><div>session_id_siri_admin</div></td></tr><tr><td style="font-weight:bold;vertical-align:top">session_locked</td><td valign="top">:</td><td><div>True</div></td></tr><tr><td style="font-weight:bold;vertical-align:top">session_new</td><td valign="top">:</td><td><div>False</div></td></tr><tr><td style="font-weight:bold;vertical-align:top">session_storage_type</td><td valign="top">:</td><td><div>file</div></td></tr><tr><td style="font-weight:bold;vertical-align:top">status</td><td valign="top">:</td><td><div>200</div></td></tr><tr><td style="font-weight:bold;vertical-align:top">subtitle</td><td valign="top">:</td><td><div>customize me!</div></td></tr><tr><td style="font-weight:bold;vertical-align:top">title</td><td valign="top">:</td><td><div>SIRI Admin</div></td></tr><tr><td style="font-weight:bold;vertical-align:top">view</td><td valign="top">:</td><td><div>default/manageprojects.html</div></td></tr></table></div>'
tRp279
sS'locals'
p280
(dp281
S'tables'
p282
S'<bound method SQLiteAdapter.tables of <gluon.dal.SQLiteAdapter object>>'
p283
sS'fields'
p284
S'[<gluon.dal.Field object>, <gluon.dal.Field object>, <gluon.dal.Field object>, <gluon.dal.Field object>, <gluon.dal.Field object>, <gluon.dal.Field object>, <gluon.dal.Field object>, <gluon.dal.Field object>, <gluon.dal.Field object>, <gluon.dal.Field object>, <gluon.dal.Field object>, <gluon.dal.Field object>, <gluon.dal.Field object>]'
p285
sS'self'
p286
S'<gluon.dal.SQLiteAdapter object>'
p287
sS'key'
p288
S"'project_reviewed'"
p289
sS'query'
p290
S'<Query (siri_projects.id IS NOT NULL)>'
p291
sS'attributes'
p292
S"{'project_reviewed': False}"
p293
sssS'traceback'
p294
S'Traceback (most recent call last):\n  File "/home/SIRI/web2py/gluon/restricted.py", line 212, in restricted\n    exec ccode in environment\n  File "/home/SIRI/web2py/applications/siri_admin/controllers/default.py", line 406, in <module>\n  File "/home/SIRI/web2py/gluon/globals.py", line 194, in <lambda>\n    self._caller = lambda f: f()\n  File "/home/SIRI/web2py/gluon/tools.py", line 3022, in f\n    return action(*a, **b)\n  File "/home/SIRI/web2py/applications/siri_admin/controllers/default.py", line 202, in manageprojects\n    reviewProjects = db(db.siri_projects).select(project_reviewed=False)\n  File "/home/SIRI/web2py/gluon/dal.py", line 9958, in select\n    return adapter.select(self.query,fields,attributes)\n  File "/home/SIRI/web2py/gluon/dal.py", line 2245, in select\n    return super(SQLiteAdapter, self).select(query, fields, attributes)\n  File "/home/SIRI/web2py/gluon/dal.py", line 1691, in select\n    sql = self._select(query, fields, attributes)\n  File "/home/SIRI/web2py/gluon/dal.py", line 1523, in _select\n    raise SyntaxError(\'invalid select attribute: %s\' % key)\nSyntaxError: invalid select attribute: project_reviewed\n'
p295
s.