(dp1
S'output'
p2
S"<type 'exceptions.ImportError'> Cannot import module 'gspread'"
p3
sS'layer'
p4
S'/home/SIRI/web2py/applications/siri_admin/models/db.py'
p5
sS'code'
p6
S"# -*- coding: utf-8 -*-\n\n#########################################################################\n## This scaffolding model makes your app work on Google App Engine too\n## File is released under public domain and you can use without limitations\n#########################################################################\n\n## if SSL/HTTPS is properly configured and you want all HTTP requests to\n## be redirected to HTTPS, uncomment the line below:\n# request.requires_https()\n\nif not request.env.web2py_runtime_gae:\n    ## if NOT running on Google App Engine use SQLite or other DB\n    db = DAL('sqlite://storage.sqlite',pool_size=1,check_reserved=['all'])\nelse:\n    ## connect to Google BigTable (optional 'google:datastore://namespace')\n    db = DAL('google:datastore')\n    ## store sessions and tickets there\n    session.connect(request, response, db=db)\n    ## or store session in Memcache, Redis, etc.\n    ## from gluon.contrib.memdb import MEMDB\n    ## from google.appengine.api.memcache import Client\n    ## session.connect(request, response, db = MEMDB(Client()))\n\n## by default give a view/generic.extension to all actions from localhost\n## none otherwise. a pattern can be 'controller/function.extension'\nresponse.generic_patterns = ['*'] if request.is_local else []\n## (optional) optimize handling of static files\n# response.optimize_css = 'concat,minify,inline'\n# response.optimize_js = 'concat,minify,inline'\n\n#########################################################################\n## Here is sample code if you need for\n## - email capabilities\n## - authentication (registration, login, logout, ... )\n## - authorization (role based authorization)\n## - services (xml, csv, json, xmlrpc, jsonrpc, amf, rss)\n## - old style crud actions\n## (more options discussed in gluon/tools.py)\n#########################################################################\n\nimport gdata\nimport gspread\nimport datetime\nfrom datetime import datetime, date, time\nfrom gluon.tools import Auth, Crud, Service, PluginManager, prettydate\nauth = Auth(db)\ncrud, service, plugins = Crud(db), Service(), PluginManager()\n\n## create all tables needed by auth if not custom tables\nauth.define_tables(username=False, signature=False)\n\n## configure email\nmail = auth.settings.mailer\nmail.settings.server = 'logging' or 'smtp.gmail.com:587'\nmail.settings.sender = 'you@gmail.com'\nmail.settings.login = 'username:password'\n\n## configure auth policy\nauth.settings.registration_requires_verification = False\nauth.settings.registration_requires_approval = False\nauth.settings.reset_password_requires_verification = True\n\n## if you need to use OpenID, Facebook, MySpace, Twitter, Linkedin, etc.\n## register with janrain.com, write your domain:api_key in private/janrain.key\nfrom gluon.contrib.login_methods.rpx_account import use_janrain\nuse_janrain(auth, filename='private/janrain.key')\n\n#########################################################################\n## Define your tables below (or better in another model file) for example\n##\n## >>> db.define_table('mytable',Field('myfield','string'))\n##\n## Fields can be 'string','text','password','integer','double','boolean'\n##       'date','time','datetime','blob','upload', 'reference TABLENAME'\n## There is an implicit 'id integer autoincrement' field\n## Consult manual for more options, validators, etc.\n##\n## More API examples for controllers:\n##\n## >>> db.mytable.insert(myfield='value')\n## >>> rows=db(db.mytable.myfield=='value').select(db.mytable.ALL)\n## >>> for row in rows: print row.id, row.myfield\n#########################################################################\n\ndb.define_table('timeclock',\nField('project','string',required=True),\nField('work_date','date',required=True),\nField('time_in','time',required=True),\nField('time_out','time',required=True),\nField('description', 'text', required=True),\nField('hours','double'),\nField('usr_id','reference auth_user')\n)\ndb.timeclock.project.requires = IS_IN_DB(db,'siri_projects.project_name')\ndb.timeclock.work_date.requires = IS_NOT_EMPTY()\ndb.timeclock.time_in.requires = IS_NOT_EMPTY()\ndb.timeclock.time_out.requires = IS_NOT_EMPTY()\ndb.timeclock.description.requires = IS_NOT_EMPTY()\ndb.timeclock.hours.readable = False\ndb.timeclock.usr_id.writable = db.timeclock.usr_id.readable = False\nif auth.is_logged_in():\n    db.timeclock.usr_id.default=auth.user.id\n    \ndb.define_table('siri_projects',\nField('project_name', 'string'),\nField('project_desc', 'text'),\nField('project_coordinator', 'string'),\nField('project_contact', 'string'),\nField('project_active', 'boolean')\n)\n\ndb.define_table('fs_students',\nField('usr_id','reference auth_user'),\nField('opp_location','string',required=True),\nField('internship','boolean'),\nField('confirmed','boolean'),\nField('paid','boolean'),\nField('airfare_purchased','boolean'),\nField('housing_conf','boolean'),\nField('training_hotel','boolean'),\nField('training_hotel_resrv','boolean'),\nField('training_start','date'),\nField('training_end','date'),\nField('depart_date','date'),\nField('return_date','date'),\nField('work_start','date'),\nField('work_end','date'),\nField('birthday','date'),\nField('emergency_name','string'),\nField('emergency_phone','string'),\nField('archive','boolean')\n)\ndb.fs_students.opp_location.requires = IS_IN_SET(['Madrid', 'Dominican Republic', 'Montreal'])\n\ndb.define_table('fs_prospects',\nField('usr_id','reference auth_user'),\nField('candidate','boolean'),\nField('interested_location','string'),\nField('interested_dates','string'),\nField('speak_language','string'),\nField('language_level','integer'),  #**** how do I max it @ 5\nField('referred_by','string'),  #**** how do I make it an option list\nField('resume','upload')\n)\ndb.fs_prospects.interested_location.requires = IS_IN_SET(['Madrid', 'Dominican Republic', 'Montreal','New Hampshire'])\ndb.fs_prospects.speak_language.requires = IS_IN_SET(['Spanish', 'French', 'Other'])\ndb.fs_prospects.language_level.requires = IS_IN_SET(['1 - Beginner', '2 - I know a few phrases', '3 - I can get by on my own', '4 - I am conversational', '5 - Native/Fluent'])\ndb.fs_prospects.referred_by.requires = IS_IN_SET(['International Studies Instructor', 'Language Instructor', 'University Email', 'Know someone who went to a meeting', 'Know someone who participated', 'Found the website'])\n\n## after defining tables, uncomment below to enable auditing\nauth.enable_record_versioning(db)\n"
p7
sS'snapshot'
p8
(dp9
S'exception'
p10
(dp11
S'__hash__'
p12
S"<method-wrapper '__hash__' of exceptions.ImportError object>"
p13
sS'__setattr__'
p14
S"<method-wrapper '__setattr__' of exceptions.ImportError object>"
p15
sS'__reduce_ex__'
p16
S'<built-in method __reduce_ex__ of exceptions.ImportError object>'
p17
sS'__getslice__'
p18
S"<method-wrapper '__getslice__' of exceptions.ImportError object>"
p19
sS'__getitem__'
p20
S"<method-wrapper '__getitem__' of exceptions.ImportError object>"
p21
sS'__setstate__'
p22
S'<built-in method __setstate__ of exceptions.ImportError object>'
p23
sS'args'
p24
S'("Cannot import module \'gspread\'",)'
p25
sS'__reduce__'
p26
S'<built-in method __reduce__ of exceptions.ImportError object>'
p27
sS'__str__'
p28
S"<method-wrapper '__str__' of exceptions.ImportError object>"
p29
sS'__format__'
p30
S'<built-in method __format__ of exceptions.ImportError object>'
p31
sS'__getattribute__'
p32
S"<method-wrapper '__getattribute__' of exceptions.ImportError object>"
p33
sS'__class__'
p34
S"<type 'exceptions.ImportError'>"
p35
sS'__unicode__'
p36
S'<built-in method __unicode__ of exceptions.ImportError object>'
p37
sS'__delattr__'
p38
S"<method-wrapper '__delattr__' of exceptions.ImportError object>"
p39
sS'__subclasshook__'
p40
S'<built-in method __subclasshook__ of type object>'
p41
sS'__repr__'
p42
S"<method-wrapper '__repr__' of exceptions.ImportError object>"
p43
sS'__dict__'
p44
S'{}'
p45
sS'__sizeof__'
p46
S'<built-in method __sizeof__ of exceptions.ImportError object>'
p47
sS'__doc__'
p48
S'"Import can\'t find module, or can\'t find name in module."'
p49
sS'__init__'
p50
S"<method-wrapper '__init__' of exceptions.ImportError object>"
p51
sS'__new__'
p52
S'<built-in method __new__ of type object>'
p53
ssS'evalue'
p54
S"Cannot import module 'gspread'"
p55
sS'request'
p56
cgluon.html
XML_unpickle
p57
(S'sF^\x00\x00<div><table><tr><td style="font-weight:bold;vertical-align:top">ajax</td><td valign="top">:</td><td><div>False</div></td></tr><tr><td style="font-weight:bold;vertical-align:top">application</td><td valign="top">:</td><td><div>siri_admin</div></td></tr><tr><td style="font-weight:bold;vertical-align:top">args</td><td valign="top">:</td><td><div><table></table></div></td></tr><tr><td style="font-weight:bold;vertical-align:top">body</td><td valign="top">:</td><td><div>&lt;cStringIO.StringO object at 0x310a768&gt;</div></td></tr><tr><td style="font-weight:bold;vertical-align:top">cid</td><td valign="top">:</td><td><div>None</div></td></tr><tr><td style="font-weight:bold;vertical-align:top">client</td><td valign="top">:</td><td><div>192.225.182.66</div></td></tr><tr><td style="font-weight:bold;vertical-align:top">controller</td><td valign="top">:</td><td><div>default</div></td></tr><tr><td style="font-weight:bold;vertical-align:top">cookies</td><td valign="top">:</td><td><div><table><tr><td style="font-weight:bold;vertical-align:top">session_data_examples</td><td valign="top">:</td><td><div>c8bb9c561ef9a9d9533cc07f32cc3793:sRy766YUeNT3CFfDaQKF3ldlXcw1MjYLwT15PgXg7AlV6ZAppInKm_oOMpvERpDbqGgy3pk35OMmWBgjAkkEnpbuTx94qX5xFfym9HvoCnY2xMruT-wzrc4cDnIwkR6zhieLsV14z1PwldaH0BNDnxFNEh7WkZXx8RANvkJENL2uE-2dty9OzmjZxvNj5Vd2_z98VLHp2UyPMDBNuHFjyw4_pKY-P5AzUV1gMUoxl52SWg3Lfsg2uIXC82wIOIBOfaLgjUPRQ91JrMw4MULdF014uJpuHoejJ3AqRe2-4QoZOexfwUtxpRRXig-14Y77Fa1C17WvSO72JOOcqXbKAJ64PAcQxlsxyXPY2fUyxeA=<table><tr><td style="font-weight:bold;vertical-align:top">comment</td><td valign="top">:</td><td><div></div></td></tr><tr><td style="font-weight:bold;vertical-align:top">domain</td><td valign="top">:</td><td><div></div></td></tr><tr><td style="font-weight:bold;vertical-align:top">expires</td><td valign="top">:</td><td><div></div></td></tr><tr><td style="font-weight:bold;vertical-align:top">httponly</td><td valign="top">:</td><td><div></div></td></tr><tr><td style="font-weight:bold;vertical-align:top">max-age</td><td valign="top">:</td><td><div></div></td></tr><tr><td style="font-weight:bold;vertical-align:top">path</td><td valign="top">:</td><td><div></div></td></tr><tr><td style="font-weight:bold;vertical-align:top">secure</td><td valign="top">:</td><td><div></div></td></tr><tr><td style="font-weight:bold;vertical-align:top">version</td><td valign="top">:</td><td><div></div></td></tr></table></div></td></tr><tr><td style="font-weight:bold;vertical-align:top">session_id_admin</td><td valign="top">:</td><td><div>192.225.182.66-606d5bea-b20a-4cc9-a454-1f08b1da05c8<table><tr><td style="font-weight:bold;vertical-align:top">comment</td><td valign="top">:</td><td><div></div></td></tr><tr><td style="font-weight:bold;vertical-align:top">domain</td><td valign="top">:</td><td><div></div></td></tr><tr><td style="font-weight:bold;vertical-align:top">expires</td><td valign="top">:</td><td><div></div></td></tr><tr><td style="font-weight:bold;vertical-align:top">httponly</td><td valign="top">:</td><td><div></div></td></tr><tr><td style="font-weight:bold;vertical-align:top">max-age</td><td valign="top">:</td><td><div></div></td></tr><tr><td style="font-weight:bold;vertical-align:top">path</td><td valign="top">:</td><td><div></div></td></tr><tr><td style="font-weight:bold;vertical-align:top">secure</td><td valign="top">:</td><td><div></div></td></tr><tr><td style="font-weight:bold;vertical-align:top">version</td><td valign="top">:</td><td><div></div></td></tr></table></div></td></tr><tr><td style="font-weight:bold;vertical-align:top">session_id_siri_admin</td><td valign="top">:</td><td><div>192.225.182.66-eb5b6931-e9ed-4335-a4be-5039afceecbf<table><tr><td style="font-weight:bold;vertical-align:top">comment</td><td valign="top">:</td><td><div></div></td></tr><tr><td style="font-weight:bold;vertical-align:top">domain</td><td valign="top">:</td><td><div></div></td></tr><tr><td style="font-weight:bold;vertical-align:top">expires</td><td valign="top">:</td><td><div></div></td></tr><tr><td style="font-weight:bold;vertical-align:top">httponly</td><td valign="top">:</td><td><div></div></td></tr><tr><td style="font-weight:bold;vertical-align:top">max-age</td><td valign="top">:</td><td><div></div></td></tr><tr><td style="font-weight:bold;vertical-align:top">path</td><td valign="top">:</td><td><div></div></td></tr><tr><td style="font-weight:bold;vertical-align:top">secure</td><td valign="top">:</td><td><div></div></td></tr><tr><td style="font-weight:bold;vertical-align:top">version</td><td valign="top">:</td><td><div></div></td></tr></table></div></td></tr><tr><td style="font-weight:bold;vertical-align:top">session_id_sra</td><td valign="top">:</td><td><div>192.225.182.66-979b82b2-4dd9-4ed1-a0cd-17e904e37d0d<table><tr><td style="font-weight:bold;vertical-align:top">comment</td><td valign="top">:</td><td><div></div></td></tr><tr><td style="font-weight:bold;vertical-align:top">domain</td><td valign="top">:</td><td><div></div></td></tr><tr><td style="font-weight:bold;vertical-align:top">expires</td><td valign="top">:</td><td><div></div></td></tr><tr><td style="font-weight:bold;vertical-align:top">httponly</td><td valign="top">:</td><td><div></div></td></tr><tr><td style="font-weight:bold;vertical-align:top">max-age</td><td valign="top">:</td><td><div></div></td></tr><tr><td style="font-weight:bold;vertical-align:top">path</td><td valign="top">:</td><td><div></div></td></tr><tr><td style="font-weight:bold;vertical-align:top">secure</td><td valign="top">:</td><td><div></div></td></tr><tr><td style="font-weight:bold;vertical-align:top">version</td><td valign="top">:</td><td><div></div></td></tr></table></div></td></tr><tr><td style="font-weight:bold;vertical-align:top">session_id_welcome</td><td valign="top">:</td><td><div>192.225.182.66-17faf919-c419-40fe-9c71-658d3174ff01<table><tr><td style="font-weight:bold;vertical-align:top">comment</td><td valign="top">:</td><td><div></div></td></tr><tr><td style="font-weight:bold;vertical-align:top">domain</td><td valign="top">:</td><td><div></div></td></tr><tr><td style="font-weight:bold;vertical-align:top">expires</td><td valign="top">:</td><td><div></div></td></tr><tr><td style="font-weight:bold;vertical-align:top">httponly</td><td valign="top">:</td><td><div></div></td></tr><tr><td style="font-weight:bold;vertical-align:top">max-age</td><td valign="top">:</td><td><div></div></td></tr><tr><td style="font-weight:bold;vertical-align:top">path</td><td valign="top">:</td><td><div></div></td></tr><tr><td style="font-weight:bold;vertical-align:top">secure</td><td valign="top">:</td><td><div></div></td></tr><tr><td style="font-weight:bold;vertical-align:top">version</td><td valign="top">:</td><td><div></div></td></tr></table></div></td></tr></table></div></td></tr><tr><td style="font-weight:bold;vertical-align:top">env</td><td valign="top">:</td><td><div><table><tr><td style="font-weight:bold;vertical-align:top">app_folders</td><td valign="top">:</td><td><div>set([&#x27;/home/SIRI/web2py/applications/siri_admin/&#x27;, &#x27;/home/SIRI/web2py/applications/examples/&#x27;, &#x27;/home/SIRI/web2py/applications/admin/&#x27;])</div></td></tr><tr><td style="font-weight:bold;vertical-align:top">applications_parent</td><td valign="top">:</td><td><div>/home/SIRI/web2py</div></td></tr><tr><td style="font-weight:bold;vertical-align:top">content_length</td><td valign="top">:</td><td><div></div></td></tr><tr><td style="font-weight:bold;vertical-align:top">content_type</td><td valign="top">:</td><td><div></div></td></tr><tr><td style="font-weight:bold;vertical-align:top">db_sessions</td><td valign="top">:</td><td><div>set([])</div></td></tr><tr><td style="font-weight:bold;vertical-align:top">debugging</td><td valign="top">:</td><td><div>True</div></td></tr><tr><td style="font-weight:bold;vertical-align:top">document_root</td><td valign="top">:</td><td><div>/var/log/nginx/user_logs</div></td></tr><tr><td style="font-weight:bold;vertical-align:top">gluon_parent</td><td valign="top">:</td><td><div>/home/SIRI/web2py</div></td></tr><tr><td style="font-weight:bold;vertical-align:top">http_accept</td><td valign="top">:</td><td><div>text/html,application/xhtml+xml,application/xml;q=0.9,*/*;q=0.8</div></td></tr><tr><td style="font-weight:bold;vertical-align:top">http_accept_encoding</td><td valign="top">:</td><td><div>gzip, deflate</div></td></tr><tr><td style="font-weight:bold;vertical-align:top">http_accept_language</td><td valign="top">:</td><td><div>en-US,en;q=0.5</div></td></tr><tr><td style="font-weight:bold;vertical-align:top">http_cache_control</td><td valign="top">:</td><td><div>max-age=0</div></td></tr><tr><td style="font-weight:bold;vertical-align:top">http_connection</td><td valign="top">:</td><td><div>close</div></td></tr><tr><td style="font-weight:bold;vertical-align:top">http_cookie</td><td valign="top">:</td><td><div>__utma=133430031.1333926040.1377126199.1377882032.1377890758.11; __utmz=133430031.1377213648.6.2.utmcsr=google|utmccn=(organic)|utmcmd=organic|utmctr=(not%20provided); session_data_examples=&quot;c8bb9c561ef9a9d9533cc07f32cc3793:sRy766YUeNT3CFfDaQKF3ldlXcw1MjYLwT15PgXg7AlV6ZAppInKm_oOMpvERpDbqGgy3pk35OMmWBgjAkkEnpbuTx94qX5xFfym9HvoCnY2xMruT-wzrc4cDnIwkR6zhieLsV14z1PwldaH0BNDnxFNEh7WkZXx8RANvkJENL2uE-2dty9OzmjZxvNj5Vd2_z98VLHp2UyPMDBNuHFjyw4_pKY-P5AzUV1gMUoxl52SWg3Lfsg2uIXC82wIOIBOfaLgjUPRQ91JrMw4MULdF014uJpuHoejJ3AqRe2-4QoZOexfwUtxpRRXig-14Y77Fa1C17WvSO72JOOcqXbKAJ64PAcQxlsxyXPY2fUyxeA=&quot;; session_id_siri_admin=192.225.182.66-eb5b6931-e9ed-4335-a4be-5039afceecbf; session_id_welcome=192.225.182.66-17faf919-c419-40fe-9c71-658d3174ff01; session_id_sra=192.225.182.66-979b82b2-4dd9-4ed1-a0cd-17e904e37d0d; session_id_admin=192.225.182.66-606d5bea-b20a-4cc9-a454-1f08b1da05c8; __utmc=133430031; __utmb=133430031.4.10.1377890758</div></td></tr><tr><td style="font-weight:bold;vertical-align:top">http_host</td><td valign="top">:</td><td><div>siri.pythonanywhere.com</div></td></tr><tr><td style="font-weight:bold;vertical-align:top">http_referer</td><td valign="top">:</td><td><div>https://siri.pythonanywhere.com/admin/default/design/siri_admin</div></td></tr><tr><td style="font-weight:bold;vertical-align:top">http_user_agent</td><td valign="top">:</td><td><div>Mozilla/5.0 (Windows NT 6.1; WOW64; rv:23.0) Gecko/20100101 Firefox/23.0</div></td></tr><tr><td style="font-weight:bold;vertical-align:top">http_x_forwarded_for</td><td valign="top">:</td><td><div>192.225.182.66</div></td></tr><tr><td style="font-weight:bold;vertical-align:top">http_x_real_ip</td><td valign="top">:</td><td><div>192.225.182.66</div></td></tr><tr><td style="font-weight:bold;vertical-align:top">https</td><td valign="top">:</td><td><div>on</div></td></tr><tr><td style="font-weight:bold;vertical-align:top">is_jython</td><td valign="top">:</td><td><div>False</div></td></tr><tr><td style="font-weight:bold;vertical-align:top">is_pypy</td><td valign="top">:</td><td><div>False</div></td></tr><tr><td style="font-weight:bold;vertical-align:top">local_hosts</td><td valign="top">:</td><td><div><table><tr><td><div>::ffff:127.0.0.1</div></td></tr><tr><td><div>::1</div></td></tr><tr><td><div>50.19.109.98</div></td></tr><tr><td><div>127.0.0.1</div></td></tr><tr><td><div>glenn-liveweb2</div></td></tr><tr><td><div>siri.pythonanywhere.com</div></td></tr><tr><td><div>localhost</div></td></tr></table></div></td></tr><tr><td style="font-weight:bold;vertical-align:top">path_info</td><td valign="top">:</td><td><div>/siri_admin/default/gdatatest</div></td></tr><tr><td style="font-weight:bold;vertical-align:top">query_string</td><td valign="top">:</td><td><div></div></td></tr><tr><td style="font-weight:bold;vertical-align:top">remote_addr</td><td valign="top">:</td><td><div>10.87.22.48</div></td></tr><tr><td style="font-weight:bold;vertical-align:top">remote_port</td><td valign="top">:</td><td><div>42707</div></td></tr><tr><td style="font-weight:bold;vertical-align:top">request_method</td><td valign="top">:</td><td><div>GET</div></td></tr><tr><td style="font-weight:bold;vertical-align:top">request_uri</td><td valign="top">:</td><td><div>/siri_admin/default/gdatatest</div></td></tr><tr><td style="font-weight:bold;vertical-align:top">script_name</td><td valign="top">:</td><td><div></div></td></tr><tr><td style="font-weight:bold;vertical-align:top">server_name</td><td valign="top">:</td><td><div>siri.pythonanywhere.com</div></td></tr><tr><td style="font-weight:bold;vertical-align:top">server_port</td><td valign="top">:</td><td><div>443</div></td></tr><tr><td style="font-weight:bold;vertical-align:top">server_protocol</td><td valign="top">:</td><td><div>HTTP/1.1</div></td></tr><tr><td style="font-weight:bold;vertical-align:top">uwsgi_node</td><td valign="top">:</td><td><div>glenn-liveweb2</div></td></tr><tr><td style="font-weight:bold;vertical-align:top">uwsgi_version</td><td valign="top">:</td><td><div>1.9.12</div></td></tr><tr><td style="font-weight:bold;vertical-align:top">web2py_path</td><td valign="top">:</td><td><div>/home/SIRI/web2py</div></td></tr><tr><td style="font-weight:bold;vertical-align:top">web2py_version</td><td valign="top">:</td><td><div>2.5.1-stable+timestamp.2013.06.06.15.39.19</div></td></tr><tr><td style="font-weight:bold;vertical-align:top">wsgi_errors</td><td valign="top">:</td><td><div>&lt;uwsgi_file__bin_user_wsgi_wrapper.ErrorLogWrapper object at 0x15d0610&gt;</div></td></tr><tr><td style="font-weight:bold;vertical-align:top">wsgi_file_wrapper</td><td valign="top">:</td><td><div>&lt;built-in function uwsgi_sendfile&gt;</div></td></tr><tr><td style="font-weight:bold;vertical-align:top">wsgi_input</td><td valign="top">:</td><td><div>&lt;uwsgi._Input object at 0x7f84763aa4e0&gt;</div></td></tr><tr><td style="font-weight:bold;vertical-align:top">wsgi_multiprocess</td><td valign="top">:</td><td><div>True</div></td></tr><tr><td style="font-weight:bold;vertical-align:top">wsgi_multithread</td><td valign="top">:</td><td><div>False</div></td></tr><tr><td style="font-weight:bold;vertical-align:top">wsgi_run_once</td><td valign="top">:</td><td><div>False</div></td></tr><tr><td style="font-weight:bold;vertical-align:top">wsgi_url_scheme</td><td valign="top">:</td><td><div>https</div></td></tr><tr><td style="font-weight:bold;vertical-align:top">wsgi_version</td><td valign="top">:</td><td><div><table><tr><td><div>1</div></td></tr><tr><td><div>0</div></td></tr></table></div></td></tr></table></div></td></tr><tr><td style="font-weight:bold;vertical-align:top">extension</td><td valign="top">:</td><td><div>html</div></td></tr><tr><td style="font-weight:bold;vertical-align:top">folder</td><td valign="top">:</td><td><div>/home/SIRI/web2py/applications/siri_admin/</div></td></tr><tr><td style="font-weight:bold;vertical-align:top">function</td><td valign="top">:</td><td><div>gdatatest</div></td></tr><tr><td style="font-weight:bold;vertical-align:top">get_vars</td><td valign="top">:</td><td><div><table></table></div></td></tr><tr><td style="font-weight:bold;vertical-align:top">global_settings</td><td valign="top">:</td><td><div><table><tr><td style="font-weight:bold;vertical-align:top">app_folders</td><td valign="top">:</td><td><div>set([&#x27;/home/SIRI/web2py/applications/siri_admin/&#x27;, &#x27;/home/SIRI/web2py/applications/examples/&#x27;, &#x27;/home/SIRI/web2py/applications/admin/&#x27;])</div></td></tr><tr><td style="font-weight:bold;vertical-align:top">applications_parent</td><td valign="top">:</td><td><div>/home/SIRI/web2py</div></td></tr><tr><td style="font-weight:bold;vertical-align:top">db_sessions</td><td valign="top">:</td><td><div>set([])</div></td></tr><tr><td style="font-weight:bold;vertical-align:top">debugging</td><td valign="top">:</td><td><div>True</div></td></tr><tr><td style="font-weight:bold;vertical-align:top">gluon_parent</td><td valign="top">:</td><td><div>/home/SIRI/web2py</div></td></tr><tr><td style="font-weight:bold;vertical-align:top">is_jython</td><td valign="top">:</td><td><div>False</div></td></tr><tr><td style="font-weight:bold;vertical-align:top">is_pypy</td><td valign="top">:</td><td><div>False</div></td></tr><tr><td style="font-weight:bold;vertical-align:top">local_hosts</td><td valign="top">:</td><td><div><table><tr><td><div>::ffff:127.0.0.1</div></td></tr><tr><td><div>::1</div></td></tr><tr><td><div>50.19.109.98</div></td></tr><tr><td><div>127.0.0.1</div></td></tr><tr><td><div>glenn-liveweb2</div></td></tr><tr><td><div>siri.pythonanywhere.com</div></td></tr><tr><td><div>localhost</div></td></tr></table></div></td></tr><tr><td style="font-weight:bold;vertical-align:top">web2py_version</td><td valign="top">:</td><td><div>2.5.1-stable+timestamp.2013.06.06.15.39.19</div></td></tr></table></div></td></tr><tr><td style="font-weight:bold;vertical-align:top">is_https</td><td valign="top">:</td><td><div>True</div></td></tr><tr><td style="font-weight:bold;vertical-align:top">is_local</td><td valign="top">:</td><td><div>False</div></td></tr><tr><td style="font-weight:bold;vertical-align:top">is_restful</td><td valign="top">:</td><td><div>False</div></td></tr><tr><td style="font-weight:bold;vertical-align:top">now</td><td valign="top">:</td><td><div>datetime.datetime(2013, 8, 30, 19, 48, 4, 803057)</div></td></tr><tr><td style="font-weight:bold;vertical-align:top">post_vars</td><td valign="top">:</td><td><div><table></table></div></td></tr><tr><td style="font-weight:bold;vertical-align:top">raw_args</td><td valign="top">:</td><td><div></div></td></tr><tr><td style="font-weight:bold;vertical-align:top">raw_extension</td><td valign="top">:</td><td><div>None</div></td></tr><tr><td style="font-weight:bold;vertical-align:top">url</td><td valign="top">:</td><td><div>/siri_admin/default/gdatatest</div></td></tr><tr><td style="font-weight:bold;vertical-align:top">utcnow</td><td valign="top">:</td><td><div>datetime.datetime(2013, 8, 30, 19, 48, 4, 803089)</div></td></tr><tr><td style="font-weight:bold;vertical-align:top">uuid</td><td valign="top">:</td><td><div>siri_admin/192.225.182.66.2013-08-30.19-48-04.d4feea09-4eee-4dd5-87bd-2a41c57c01d3</div></td></tr><tr><td style="font-weight:bold;vertical-align:top">vars</td><td valign="top">:</td><td><div><table></table></div></td></tr><tr><td style="font-weight:bold;vertical-align:top">wsgi</td><td valign="top">:</td><td><div><table><tr><td style="font-weight:bold;vertical-align:top">environ</td><td valign="top">:</td><td><div><table><tr><td style="font-weight:bold;vertical-align:top">CONTENT_LENGTH</td><td valign="top">:</td><td><div></div></td></tr><tr><td style="font-weight:bold;vertical-align:top">CONTENT_TYPE</td><td valign="top">:</td><td><div></div></td></tr><tr><td style="font-weight:bold;vertical-align:top">DOCUMENT_ROOT</td><td valign="top">:</td><td><div>/var/log/nginx/user_logs</div></td></tr><tr><td style="font-weight:bold;vertical-align:top">HTTPS</td><td valign="top">:</td><td><div>on</div></td></tr><tr><td style="font-weight:bold;vertical-align:top">HTTP_ACCEPT</td><td valign="top">:</td><td><div>text/html,application/xhtml+xml,application/xml;q=0.9,*/*;q=0.8</div></td></tr><tr><td style="font-weight:bold;vertical-align:top">HTTP_ACCEPT_ENCODING</td><td valign="top">:</td><td><div>gzip, deflate</div></td></tr><tr><td style="font-weight:bold;vertical-align:top">HTTP_ACCEPT_LANGUAGE</td><td valign="top">:</td><td><div>en-US,en;q=0.5</div></td></tr><tr><td style="font-weight:bold;vertical-align:top">HTTP_CACHE_CONTROL</td><td valign="top">:</td><td><div>max-age=0</div></td></tr><tr><td style="font-weight:bold;vertical-align:top">HTTP_CONNECTION</td><td valign="top">:</td><td><div>close</div></td></tr><tr><td style="font-weight:bold;vertical-align:top">HTTP_COOKIE</td><td valign="top">:</td><td><div>__utma=133430031.1333926040.1377126199.1377882032.1377890758.11; __utmz=133430031.1377213648.6.2.utmcsr=google|utmccn=(organic)|utmcmd=organic|utmctr=(not%20provided); session_data_examples=&quot;c8bb9c561ef9a9d9533cc07f32cc3793:sRy766YUeNT3CFfDaQKF3ldlXcw1MjYLwT15PgXg7AlV6ZAppInKm_oOMpvERpDbqGgy3pk35OMmWBgjAkkEnpbuTx94qX5xFfym9HvoCnY2xMruT-wzrc4cDnIwkR6zhieLsV14z1PwldaH0BNDnxFNEh7WkZXx8RANvkJENL2uE-2dty9OzmjZxvNj5Vd2_z98VLHp2UyPMDBNuHFjyw4_pKY-P5AzUV1gMUoxl52SWg3Lfsg2uIXC82wIOIBOfaLgjUPRQ91JrMw4MULdF014uJpuHoejJ3AqRe2-4QoZOexfwUtxpRRXig-14Y77Fa1C17WvSO72JOOcqXbKAJ64PAcQxlsxyXPY2fUyxeA=&quot;; session_id_siri_admin=192.225.182.66-eb5b6931-e9ed-4335-a4be-5039afceecbf; session_id_welcome=192.225.182.66-17faf919-c419-40fe-9c71-658d3174ff01; session_id_sra=192.225.182.66-979b82b2-4dd9-4ed1-a0cd-17e904e37d0d; session_id_admin=192.225.182.66-606d5bea-b20a-4cc9-a454-1f08b1da05c8; __utmc=133430031; __utmb=133430031.4.10.1377890758</div></td></tr><tr><td style="font-weight:bold;vertical-align:top">HTTP_HOST</td><td valign="top">:</td><td><div>siri.pythonanywhere.com</div></td></tr><tr><td style="font-weight:bold;vertical-align:top">HTTP_REFERER</td><td valign="top">:</td><td><div>https://siri.pythonanywhere.com/admin/default/design/siri_admin</div></td></tr><tr><td style="font-weight:bold;vertical-align:top">HTTP_USER_AGENT</td><td valign="top">:</td><td><div>Mozilla/5.0 (Windows NT 6.1; WOW64; rv:23.0) Gecko/20100101 Firefox/23.0</div></td></tr><tr><td style="font-weight:bold;vertical-align:top">HTTP_X_FORWARDED_FOR</td><td valign="top">:</td><td><div>192.225.182.66</div></td></tr><tr><td style="font-weight:bold;vertical-align:top">HTTP_X_REAL_IP</td><td valign="top">:</td><td><div>192.225.182.66</div></td></tr><tr><td style="font-weight:bold;vertical-align:top">PATH_INFO</td><td valign="top">:</td><td><div>/siri_admin/default/gdatatest</div></td></tr><tr><td style="font-weight:bold;vertical-align:top">QUERY_STRING</td><td valign="top">:</td><td><div></div></td></tr><tr><td style="font-weight:bold;vertical-align:top">REMOTE_ADDR</td><td valign="top">:</td><td><div>10.87.22.48</div></td></tr><tr><td style="font-weight:bold;vertical-align:top">REMOTE_PORT</td><td valign="top">:</td><td><div>42707</div></td></tr><tr><td style="font-weight:bold;vertical-align:top">REQUEST_METHOD</td><td valign="top">:</td><td><div>GET</div></td></tr><tr><td style="font-weight:bold;vertical-align:top">REQUEST_URI</td><td valign="top">:</td><td><div>/siri_admin/default/gdatatest</div></td></tr><tr><td style="font-weight:bold;vertical-align:top">SCRIPT_NAME</td><td valign="top">:</td><td><div></div></td></tr><tr><td style="font-weight:bold;vertical-align:top">SERVER_NAME</td><td valign="top">:</td><td><div>siri.pythonanywhere.com</div></td></tr><tr><td style="font-weight:bold;vertical-align:top">SERVER_PORT</td><td valign="top">:</td><td><div>443</div></td></tr><tr><td style="font-weight:bold;vertical-align:top">SERVER_PROTOCOL</td><td valign="top">:</td><td><div>HTTP/1.1</div></td></tr><tr><td style="font-weight:bold;vertical-align:top">uwsgi.node</td><td valign="top">:</td><td><div>glenn-liveweb2</div></td></tr><tr><td style="font-weight:bold;vertical-align:top">uwsgi.version</td><td valign="top">:</td><td><div>1.9.12</div></td></tr><tr><td style="font-weight:bold;vertical-align:top">wsgi.errors</td><td valign="top">:</td><td><div>&lt;uwsgi_file__bin_user_wsgi_wrapper.ErrorLogWrapper object at 0x15d0610&gt;</div></td></tr><tr><td style="font-weight:bold;vertical-align:top">wsgi.file_wrapper</td><td valign="top">:</td><td><div>&lt;built-in function uwsgi_sendfile&gt;</div></td></tr><tr><td style="font-weight:bold;vertical-align:top">wsgi.input</td><td valign="top">:</td><td><div>&lt;cStringIO.StringO object at 0x310a768&gt;</div></td></tr><tr><td style="font-weight:bold;vertical-align:top">wsgi.multiprocess</td><td valign="top">:</td><td><div>True</div></td></tr><tr><td style="font-weight:bold;vertical-align:top">wsgi.multithread</td><td valign="top">:</td><td><div>False</div></td></tr><tr><td style="font-weight:bold;vertical-align:top">wsgi.run_once</td><td valign="top">:</td><td><div>False</div></td></tr><tr><td style="font-weight:bold;vertical-align:top">wsgi.url_scheme</td><td valign="top">:</td><td><div>https</div></td></tr><tr><td style="font-weight:bold;vertical-align:top">wsgi.version</td><td valign="top">:</td><td><div>1</div></td></tr></table></div></td></tr></table></div></td></tr></table></div>'
tRp58
sS'frames'
p59
(lp60
(dp61
S'file'
p62
S'/home/SIRI/web2py/gluon/restricted.py'
p63
sS'dump'
p64
(dp65
S'environment'
p66
S"{'A': <class 'gluon.html.A'>, 'ANY_OF': <class 'gluon.validators.ANY_OF'>, 'B': <class 'gluon.html.B'>, 'BEAUTIFY': <class 'gluon.html.BEAUTIFY'>, 'BODY': <class 'gluon.html.BODY'>, 'BR': <class 'gluon.html.BR'>, 'BUTTON': <class 'gluon.html.BUTTON'>, 'CAT': <class 'gluon.html.CAT'>, 'CENTER': <class 'gluon.html.CENTER'>, 'CLEANUP': <class 'gluon.validators.CLEANUP'>, ...}"
p67
sS'ccode'
p68
S'<code object <module> at 0x2169530, file "/home/...y/applications/siri_admin/models/db.py", line 12>'
p69
ssS'lnum'
p70
I212
sS'lines'
p71
(dp72
I207
S'    try:'
p73
sI208
S'        if isinstance(code, types.CodeType):'
p74
sI209
S'            ccode = code'
p75
sI210
S'        else:'
p76
sI211
S'            ccode = compile2(code, layer)'
p77
sI212
S'        exec ccode in environment'
p78
sI213
S'    except HTTP:'
p79
sI214
S'        raise'
p80
sI215
S'    except RestrictedError:'
p81
sI216
S'        # do not encapsulate (obfuscate) the original RestrictedError'
p82
ssS'call'
p83
S"(code='# -*- coding: utf-8 -*-\\n\\n#######################...nable auditing\\nauth.enable_record_versioning(db)\\n', environment={'A': <class 'gluon.html.A'>, 'ANY_OF': <class 'gluon.validators.ANY_OF'>, 'B': <class 'gluon.html.B'>, 'BEAUTIFY': <class 'gluon.html.BEAUTIFY'>, 'BODY': <class 'gluon.html.BODY'>, 'BR': <class 'gluon.html.BR'>, 'BUTTON': <class 'gluon.html.BUTTON'>, 'CAT': <class 'gluon.html.CAT'>, 'CENTER': <class 'gluon.html.CENTER'>, 'CLEANUP': <class 'gluon.validators.CLEANUP'>, ...}, layer='/home/SIRI/web2py/applications/siri_admin/models/db.py')"
p84
sS'func'
p85
S'restricted'
p86
sa(dp87
g62
S'/home/SIRI/web2py/applications/siri_admin/models/db.py'
p88
sg64
(dp89
S'gspread'
p90
S'undefined'
p91
ssg70
I43
sg71
(dp92
I38
S'## - old style crud actions'
p93
sI39
S'## (more options discussed in gluon/tools.py)'
p94
sI40
S'#########################################################################'
p95
sI41
S''
sI42
S'import gdata'
p96
sI43
S'import gspread'
p97
sI44
S'import datetime'
p98
sI45
S'from datetime import datetime, date, time'
p99
sI46
S'from gluon.tools import Auth, Crud, Service, PluginManager, prettydate'
p100
sI47
S'auth = Auth(db)'
p101
ssg83
S'()'
p102
sg85
S'<module>'
p103
sa(dp104
g62
S'/home/SIRI/web2py/gluon/custom_import.py'
p105
sg64
(dp106
S'builtinstr'
p107
S"<type 'str'>"
p108
sS'builtinImportError'
p109
S"<type 'exceptions.ImportError'>"
p110
sS'e'
S"KeyError('gspread',)"
p111
ssg70
I81
sg71
(dp112
I76
S'                        new_mod = base_importer('
p113
sI77
S'                            modules_prefix, globals, locals, [itemname], level)'
p114
sI78
S'                        try:'
p115
sI79
S'                            result = result or new_mod.__dict__[itemname]'
p116
sI80
S'                        except KeyError, e:'
p117
sI81
S"                            raise ImportError, 'Cannot import module %s' % str(e)"
p118
sI82
S'                        modules_prefix += "." + itemname'
p119
sI83
S'                    return result'
p120
sI84
S'                else:'
p121
sI85
S'                    # import like "from x import a, b, ..."'
p122
ssg83
S"(name='gspread', globals={'A': <class 'gluon.html.A'>, 'ANY_OF': <class 'gluon.validators.ANY_OF'>, 'B': <class 'gluon.html.B'>, 'BEAUTIFY': <class 'gluon.html.BEAUTIFY'>, 'BODY': <class 'gluon.html.BODY'>, 'BR': <class 'gluon.html.BR'>, 'BUTTON': <class 'gluon.html.BUTTON'>, 'CAT': <class 'gluon.html.CAT'>, 'CENTER': <class 'gluon.html.CENTER'>, 'CLEANUP': <class 'gluon.validators.CLEANUP'>, ...}, locals={'A': <class 'gluon.html.A'>, 'ANY_OF': <class 'gluon.validators.ANY_OF'>, 'B': <class 'gluon.html.B'>, 'BEAUTIFY': <class 'gluon.html.BEAUTIFY'>, 'BODY': <class 'gluon.html.BODY'>, 'BR': <class 'gluon.html.BR'>, 'BUTTON': <class 'gluon.html.BUTTON'>, 'CAT': <class 'gluon.html.CAT'>, 'CENTER': <class 'gluon.html.CENTER'>, 'CLEANUP': <class 'gluon.validators.CLEANUP'>, ...}, fromlist=[], level=-1)"
p123
sg85
S'custom_importer'
p124
sasS'pyver'
p125
S'Python 2.7.4: /usr/local/bin/uwsgi (prefix: /usr)'
p126
sS'session'
p127
g57
(S's\x92\x01\x00\x00<div><table><tr><td style="font-weight:bold;vertical-align:top">flash</td><td valign="top">:</td><td><div>None</div></td></tr><tr><td style="font-weight:bold;vertical-align:top">last_orderby</td><td valign="top">:</td><td><div>None</div></td></tr><tr><td style="font-weight:bold;vertical-align:top">last_query</td><td valign="top">:</td><td><div>db.auth_membership.id&gt;0</div></td></tr></table></div>'
tRp128
sS'etype'
p129
S"<type 'exceptions.ImportError'>"
p130
sS'date'
p131
S'Fri Aug 30 19:48:04 2013'
p132
sS'response'
p133
g57
(S's\xd8\x11\x00\x00<div><table><tr><td style="font-weight:bold;vertical-align:top">body</td><td valign="top">:</td><td><div>&lt;cStringIO.StringO object at 0x310a228&gt;</div></td></tr><tr><td style="font-weight:bold;vertical-align:top">cookies</td><td valign="top">:</td><td><div><table><tr><td style="font-weight:bold;vertical-align:top">session_id_siri_admin</td><td valign="top">:</td><td><div>192.225.182.66-eb5b6931-e9ed-4335-a4be-5039afceecbf<table><tr><td style="font-weight:bold;vertical-align:top">comment</td><td valign="top">:</td><td><div></div></td></tr><tr><td style="font-weight:bold;vertical-align:top">domain</td><td valign="top">:</td><td><div></div></td></tr><tr><td style="font-weight:bold;vertical-align:top">expires</td><td valign="top">:</td><td><div></div></td></tr><tr><td style="font-weight:bold;vertical-align:top">httponly</td><td valign="top">:</td><td><div></div></td></tr><tr><td style="font-weight:bold;vertical-align:top">max-age</td><td valign="top">:</td><td><div></div></td></tr><tr><td style="font-weight:bold;vertical-align:top">path</td><td valign="top">:</td><td><div>/</div></td></tr><tr><td style="font-weight:bold;vertical-align:top">secure</td><td valign="top">:</td><td><div></div></td></tr><tr><td style="font-weight:bold;vertical-align:top">version</td><td valign="top">:</td><td><div></div></td></tr></table></div></td></tr></table></div></td></tr><tr><td style="font-weight:bold;vertical-align:top">delimiters</td><td valign="top">:</td><td><div><table><tr><td><div>{{</div></td></tr><tr><td><div>}}</div></td></tr></table></div></td></tr><tr><td style="font-weight:bold;vertical-align:top">files</td><td valign="top">:</td><td><div><table></table></div></td></tr><tr><td style="font-weight:bold;vertical-align:top">flash</td><td valign="top">:</td><td><div></div></td></tr><tr><td style="font-weight:bold;vertical-align:top">generic_patterns</td><td valign="top">:</td><td><div><table></table></div></td></tr><tr><td style="font-weight:bold;vertical-align:top">headers</td><td valign="top">:</td><td><div><table><tr><td style="font-weight:bold;vertical-align:top">X-Powered-By</td><td valign="top">:</td><td><div>web2py</div></td></tr></table></div></td></tr><tr><td style="font-weight:bold;vertical-align:top">menu</td><td valign="top">:</td><td><div><table></table></div></td></tr><tr><td style="font-weight:bold;vertical-align:top">meta</td><td valign="top">:</td><td><div><table></table></div></td></tr><tr><td style="font-weight:bold;vertical-align:top">models_to_run</td><td valign="top">:</td><td><div><table><tr><td><div>^\\w+\\.py$</div></td></tr><tr><td><div>^default/\\w+\\.py$</div></td></tr><tr><td><div>^default/gdatatest/\\w+\\.py$</div></td></tr></table></div></td></tr><tr><td style="font-weight:bold;vertical-align:top">postprocessing</td><td valign="top">:</td><td><div><table></table></div></td></tr><tr><td style="font-weight:bold;vertical-align:top">session_cookie_expires</td><td valign="top">:</td><td><div>None</div></td></tr><tr><td style="font-weight:bold;vertical-align:top">session_data_name</td><td valign="top">:</td><td><div>session_data_siri_admin</div></td></tr><tr><td style="font-weight:bold;vertical-align:top">session_file</td><td valign="top">:</td><td><div>&lt;open file &#x27;/home/SIRI/web2py/applications/siri_admin/sessions/192.225.182.66-eb5b6931-e9ed-4335-a4be-5039afceecbf&#x27;, mode &#x27;rb+&#x27; at 0x342fc90&gt;</div></td></tr><tr><td style="font-weight:bold;vertical-align:top">session_filename</td><td valign="top">:</td><td><div>/home/SIRI/web2py/applications/siri_admin/sessions/192.225.182.66-eb5b6931-e9ed-4335-a4be-5039afceecbf</div></td></tr><tr><td style="font-weight:bold;vertical-align:top">session_id</td><td valign="top">:</td><td><div>192.225.182.66-eb5b6931-e9ed-4335-a4be-5039afceecbf</div></td></tr><tr><td style="font-weight:bold;vertical-align:top">session_id_name</td><td valign="top">:</td><td><div>session_id_siri_admin</div></td></tr><tr><td style="font-weight:bold;vertical-align:top">session_locked</td><td valign="top">:</td><td><div>True</div></td></tr><tr><td style="font-weight:bold;vertical-align:top">session_new</td><td valign="top">:</td><td><div>False</div></td></tr><tr><td style="font-weight:bold;vertical-align:top">session_storage_type</td><td valign="top">:</td><td><div>file</div></td></tr><tr><td style="font-weight:bold;vertical-align:top">status</td><td valign="top">:</td><td><div>200</div></td></tr><tr><td style="font-weight:bold;vertical-align:top">view</td><td valign="top">:</td><td><div>default/gdatatest.html</div></td></tr></table></div>'
tRp134
sS'locals'
p135
(dp136
S'fromlist'
p137
S'[]'
p138
sS'result'
p139
S'None'
p140
sS'e'
S"KeyError('gspread',)"
p141
sS'name'
p142
S"'gspread'"
p143
sS'level'
p144
S'-1'
p145
sS'itemname'
p146
S"'gspread'"
p147
sS'base_importer'
p148
S'<built-in function __import__>'
p149
sS'e1'
p150
S'ImportError("Cannot import module \'gspread\'",)'
p151
sS'globals'
p152
S"{'A': <class 'gluon.html.A'>, 'ANY_OF': <class 'gluon.validators.ANY_OF'>, 'B': <class 'gluon.html.B'>, 'BEAUTIFY': <class 'gluon.html.BEAUTIFY'>, 'BODY': <class 'gluon.html.BODY'>, 'BR': <class 'gluon.html.BR'>, 'BUTTON': <class 'gluon.html.BUTTON'>, 'CAT': <class 'gluon.html.CAT'>, 'CENTER': <class 'gluon.html.CENTER'>, 'CLEANUP': <class 'gluon.validators.CLEANUP'>, ...}"
p153
sS'e3'
p154
S"ImportError('No module named gspread',)"
p155
sS'items'
p156
S"['', 'home', 'SIRI', 'web2py', 'applications', 'siri_admin']"
p157
sS'modules_prefix'
p158
S"'applications.siri_admin.modules'"
p159
sS'new_mod'
p160
S"<module 'applications.siri_admin.modules' from 'applications/siri_admin/modules/__init__.pyc'>"
p161
sS'import_tb'
p162
S'None'
p163
sg135
S"{'A': <class 'gluon.html.A'>, 'ANY_OF': <class 'gluon.validators.ANY_OF'>, 'B': <class 'gluon.html.B'>, 'BEAUTIFY': <class 'gluon.html.BEAUTIFY'>, 'BODY': <class 'gluon.html.BODY'>, 'BR': <class 'gluon.html.BR'>, 'BUTTON': <class 'gluon.html.BUTTON'>, 'CAT': <class 'gluon.html.CAT'>, 'CENTER': <class 'gluon.html.CENTER'>, 'CLEANUP': <class 'gluon.validators.CLEANUP'>, ...}"
p164
sS'oname'
p165
S"'gspread'"
p166
sssS'traceback'
p167
S'Traceback (most recent call last):\n  File "/home/SIRI/web2py/gluon/restricted.py", line 212, in restricted\n    exec ccode in environment\n  File "/home/SIRI/web2py/applications/siri_admin/models/db.py", line 43, in <module>\n    import gspread\n  File "/home/SIRI/web2py/gluon/custom_import.py", line 81, in custom_importer\n    raise ImportError, \'Cannot import module %s\' % str(e)\nImportError: Cannot import module \'gspread\'\n'
p168
s.