(dp1
S'output'
p2
S"<type 'exceptions.AttributeError'> 'Table' object has no attribute 'project_name'"
p3
sS'layer'
p4
S'/home/SIRI/web2py/applications/siri_admin/controllers/default.py'
p5
sS'code'
p6
S'# -*- coding: utf-8 -*-\n# this file is released under public domain and you can use without limitations\n\n#########################################################################\n## This is a sample controller\n## - index is the default action of any application\n## - user is required for authentication and authorization\n## - download is for downloading files uploaded in the db (does streaming)\n## - call exposes all registered services (none by default)\n#########################################################################\n\n\ndef index():\n    """\n    example action using the internationalization operator T and flash\n    rendered by views/default/index.html or views/generic.html\n\n    if you need a simple wiki simple replace the two lines below with:\n    return auth.wiki()\n    """\n    response.flash = T("Welcome to web2py!")\n    return dict(message=T(\'Hello World\'))\n\n\ndef user():\n    """\n    exposes:\n    http://..../[app]/default/user/login\n    http://..../[app]/default/user/logout\n    http://..../[app]/default/user/register\n    http://..../[app]/default/user/profile\n    http://..../[app]/default/user/retrieve_password\n    http://..../[app]/default/user/change_password\n    http://..../[app]/default/user/manage_users (requires membership in\n    use @auth.requires_login()\n        @auth.requires_membership(\'group name\')\n        @auth.requires_permission(\'read\',\'table name\',record_id)\n    to decorate functions that need access control\n    """\n    return dict(form=auth())\n\n@cache.action()\ndef download():\n    """\n    allows downloading of uploaded files\n    http://..../[app]/default/download/[filename]\n    """\n    return response.download(request, db)\n\n\ndef call():\n    """\n    exposes services. for example:\n    http://..../[app]/default/call/jsonrpc\n    decorate with @services.jsonrpc the functions to expose\n    supports xml, json, xmlrpc, jsonrpc, amfrpc, rss, csv\n    """\n    return service()\n\n\n@auth.requires_signature()\ndef data():\n    """\n    http://..../[app]/default/data/tables\n    http://..../[app]/default/data/create/[table]\n    http://..../[app]/default/data/read/[table]/[id]\n    http://..../[app]/default/data/update/[table]/[id]\n    http://..../[app]/default/data/delete/[table]/[id]\n    http://..../[app]/default/data/select/[table]\n    http://..../[app]/default/data/search/[table]\n    but URLs must be signed, i.e. linked with\n      A(\'table\',_href=URL(\'data/tables\',user_signature=True))\n    or with the signed load operator\n      LOAD(\'default\',\'data.load\',args=\'tables\',ajax=True,user_signature=True)\n    """\n    return dict(form=crud())\n\n\n###############################\n## custom general functions\n###############################\n\n@auth.requires_login()\ndef displayusers():\n    """\n    Shows the list of users\n    """\n    response.flash = \'This page shows a list of users\'\n    query = (db.auth_user)\n    users = db(query).select()\n    return dict(users = users)\n\n\n###############################\n## custom time clock functions\n###############################\n\n@auth.requires_login()\ndef mainpage():\n    """\n    this will become the index page\n    """\n    fields = [\'project\',\'work_date\',\'time_in\',\'time_out\',\'description\']\n    form = SQLFORM(db.timeclock, submit_button = \'Submit Hours\', fields = fields)\n    if form.process(onvalidation=calcHours).accepted:\n        response.flash = \'Thank you for submitting your time \' + str(form.vars.hours)\n    elif form.errors:\n        response.flash = \'There was an error on the form\'\n    else:\n        response.flash = \'Welcome \' + session.auth.user.first_name + \' your id is: \' + str(session.auth.user.id)\n    response.title = \'Welcome \' + session.auth.user.first_name\n    response.subtitle = \'please review your time or fill out the form below to add time\'\n\n    query = (db.timeclock.usr_id == session.auth.user.id)\n    clockEntries = db(query).select()\n    totalHours = 0\n    for entry in clockEntries:\n        totalHours += float(entry.hours)\n    return dict(form=form, clockEntries=clockEntries, totalHours=totalHours)\n\ndef engage():\n\n    response.title = \'Engage!\'\n    response.subtitle = \'Let SIRI help you tie into our collaborative network.\'\n\n    return dict()\n\n@auth.requires_login()\ndef engagepartner():\n    fields = [\'contact_org\', \'contact_name\', \'contact_phone\', \'contact_email\', \'contact_loc\', \'num_students\']\n    form = SQLFORM(db.siri_projects, submit_button = \'Submit\', fields = fields)\n    if form.process().accepted:\n        response.flash = \'Thank you for your interest in partnering with SIRI\'\n    elif form.errors:\n        response.flash = \'There was an error on the form\'\n    else:\n        response.flash = \'Welcome \' + session.auth.user.first_name + \', tell us how we can help you.\'\n\n    return dict(form=form)\n\ndef engagestudent():\n    fields = [\'contact_org\', \'contact_name\', \'contact_phone\', \'contact_email\', \'contact_loc\', \'num_students\']\n    form = SQLFORM(db.siri_students, submit_button = \'Submit\', fields = fields)\n    if form.process().accepted:\n        response.flash = \'Thank you for your interest in partnering with SIRI\'\n    elif form.errors:\n        response.flash = \'There was an error on the form\'\n    else:\n        response.flash = \'Welcome \' + session.auth.user.first_name + \', tell us how we can help you.\'\n\n    return dict(form=form)\n\ndef engagementor():\n    fields = [\'contact_org\', \'contact_name\', \'contact_phone\', \'contact_email\', \'contact_loc\', \'num_students\']\n    form = SQLFORM(db.siri_mentors, submit_button = \'Submit\', fields = fields)\n    if form.process().accepted:\n        response.flash = \'Thank you for your interest in partnering with SIRI\'\n    elif form.errors:\n        response.flash = \'There was an error on the form\'\n    else:\n        response.flash = \'Welcome \' + session.auth.user.first_name + \', tell us how we can help you.\'\n\n    return dict(form=form)\n\ndef calcHours(form):\n    hourDiff = int(form.vars.time_out[0:2]) - int(form.vars.time_in[0:2])\n    minDiff = (int(form.vars.time_out[3:5]) - int(form.vars.time_in[3:5]))/60.0\n    form.vars.hours = hourDiff + minDiff\n\n@auth.requires_login()\ndef clockadmin():\n    adminMenu = MENU([\n        [\'Manage Projects\', False, URL(manageprojects)],\n        [\'Manage Users\', False, URL(manageusers)],\n        [\'Manage Groups\', False, URL(managegroups)]\n        ])\n\n    users = db(db.auth_user.id).select()\n    projects = db(db.siri_projects).select()\n    groups = db(db.auth_group).select()\n\n    response.title = \'SIRI Administration\'\n    response.subtitle = \'Manage, edit or add users, groups and projects\'\n    return dict(adminMenu=adminMenu, users=users, projects=projects, groups=groups)\n\n@auth.requires_login()\ndef manageprojects():\n    adminMenu = MENU([\n        [\'Admin Home\', False, URL(clockadmin)],\n        [\'Manage Users\', False, URL(manageusers)],\n        [\'Manage Groups\', False, URL(managegroups)]\n        ])\n    form = SQLFORM(db.siri_projects)\n    if form.process().accepted:\n        response.flash = \'Thank you for submitting a new project\'\n    elif form.errors:\n        response.flash = \'There was an error on the form\'\n    else:\n        response.flash = \'Welcome \' + session.auth.user.first_name + \' your id is: \' + str(session.auth.user.id)\n    \n    projects = db(db.siri_projects).select()\n    test = db.siri_projects[1]\n\n    for project in projects:\n        if len(project.description) > 75:\n            project.description = project.description[:75] + \'...\'\n\n\n    return dict(form=form, projects=projects, adminMenu=adminMenu, test=test)\n\n@auth.requires_login()\ndef editproject():\n    record = db.siri_projects(request.args(0)) or redirect(URL(\'clockadmin\'))\n    form = SQLFORM(db.siri_projects, record)\n    if form.process(next=\'manageprojects\').accepted:\n        response.flash = \'Thank you, the project has been updated\'\n    elif form.errors:\n        response.flash = \'There was an error on the form\'\n    else:\n        response.flash = \'Please update the project info\'\n    return dict(form=form)\n\n@auth.requires_login()\ndef managegroups():\n    adminMenu = MENU([[\'Admin Home\', False, URL(clockadmin)],[\'Manage Projects\', False, URL(manageprojects)],[\'Manage Users\', False, URL(manageusers)]])\n    groups = db(db.auth_group).select()\n\n    return dict(groupList=groups)\n\n@auth.requires_login()\ndef manageusers():\n    adminMenu = MENU([[\'Admin Home\', False, URL(clockadmin)],[\'Manage Projects\', False, URL(manageprojects)],[\'Manage Groups\', False, URL(managegroups)]])\n    userFilter = MENU([[],[]])\n    users = db(db.auth_user).select()\n    form = SQLFORM(db.auth_user)\n    if form.process().accepted:\n        response.flash = \'Thank you for adding a new user, be sure to let them know their temporary password\'\n    elif form.errors:\n        response.flash = \'There was an error on the form\'\n    else:\n        response.flash = \'Welcome \' + session.auth.user.first_name + \' feel free to edit or add users\'\n\n    return dict(users=users, form=form, adminMenu=adminMenu)\n\n@auth.requires_login()\ndef edituser():\n    record = db.auth_user(request.args(0)) or redirect(URL(\'clockadmin\'))\n    form = SQLFORM(db.auth_user, record)\n    if form.process(next=\'manageusers\').accepted:  #**** need to next to referring page\n        response.flash = \'Thank you, the user has been updated\'\n    elif form.errors:\n        response.flash = \'There was an error on the form\'\n    else:\n        response.flash = \'Please update the user info\'\n    return dict(form=form)\n\n@auth.requires_login()\ndef employeedash():\n    """\n    Default page for employees to add/view time\n    """\n    form = SQLFORM(db.timeclock)\n    if form.process().accepted:\n        response.flash = \'Thank you for submitting your time\'\n    elif form.errors:\n        response.flash = \'There was an error on the form\'\n    else:\n        response.flash = \'Welcome to your dashboard \' + session.auth.user.first_name\n    response.title = session.auth.user.first_name + "\'s Dashboard"\n    response.subtitle = \'Add or review time clock submissions\'\n    clockEntries = db(db.timeclock.usr_id == session.auth.user.id).select()\n    return dict(form=form, entries=clockEntries)\n\n@auth.requires_login()\ndef addtime():\n    """\n    Allows a loggedin user to add an entry for time worked\n    """\n    form = SQLFORM(db.timeclock)\n    if form.process().accepted:\n        response.flash = \'Thank you for submitting your time\'\n    elif form.errors:\n        response.flash = \'There was an error on the form\'\n    else:\n        response.flash = \'Welcome \' + session.auth.user.first_name + \' your id is: \' + str(session.auth.user.id)\n    response.title = \'New Entry\'\n    response.subtitle = \'please fill out the form below\'\n    hoursTest = type(db.timeclock.time_in)\n    return dict(form=form, hoursTest=hoursTest)\n\n@auth.requires_login()\ndef displaytime():\n    """\n    Shows the entries for the user that is logged in\n    TODO: add a \'request change\' link for employees to request a change to an entry\n    """\n    response.flash = \'This page shows your entries\'\n    clockEntries = db(db.timeclock.usr_id == session.auth.user.id).select()\n    return dict(clockEntries = clockEntries)\n\ndef gdatatest():\n    """\n    testing integration with Google\n    """\n\n    gemail = \'dawg3tt@gmail.com\'\n    gpwd = \'mol090901!\'\n\n    # ############ get docs list example #################################################\n    # # Create a client class which will make HTTP requests with Google Docs server.\n    # gdocsClient = gdata.docs.service.DocsService()\n    # # Authenticate using your Google Docs email address and password.\n    # gdocsClient.email = gemail\n    # gdocsClient.password = gpwd\n    # gdocsClient.source = \'SIRI Admin\'\n    # gdocsClient.ProgrammaticLogin()\n    # # Query the server for an Atom feed containing a list of your documents.\n    # docsFeed = gdocsClient.GetDocumentListFeed()\n    # ####################################################################################\n    \n    # return dict(docsFeed=docsFeed)\n\ndef gspreadtest():\n    users = db(db.auth_user).select()\n    clockEntries = db(db.timeclock.project == \'DDM\').select()\n    for user in users:\n        user\n\n    gc = gspread.login(\'dawg3tt@gmail.com\', \'mol090901!\')\n    ss = gc.open("web2py_tester")\n    wks = ss.sheet1\n    timeList = wks.range(\'A16:E30\')\n    for cell in timeList:\n        cell.value = \'\'\n    wks.update_cells(timeList)\n    newks = ss.add_worksheet(title="employee", rows="30", cols="6")\n    newks.update_cell(1,1, \'invoice\')\n    copyRange = wks.range(\'A1:F30\')\n    newRange = newks.range(\'A1:F30\')\n    copyList = wks.get_all_values()\n    newks.update_cells(copyRange)\n\n    update = False\n    if update:\n        rate = 10\n        idx = 16\n        for entry in clockEntries:\n            wks.update_cell(idx, 1, entry.work_date)\n            wks.update_cell(idx, 2, entry.description)\n            wks.update_cell(idx, 3, entry.hours)\n            wks.update_cell(idx, 4, rate) #****this should be replaced by a query for rate added by admin\n            wks.update_cell(idx, 5, rate*entry.hours)\n            idx += 1\n\n    return dict(\n        timeList=timeList, \n        clockEntries=clockEntries, \n        users=users, \n        wks=wks,\n        newks=newks,\n        copyRange=copyRange, \n        copyList=copyList\n        )\n\n# def copyCells(values, newks):\n#     for row in values:\n#         for cell in rows:\n\n\n#################################\n## custom FamilySearch functions\n#################################\n\ndef fsapply():\n    """\n    Allows interested students to apply for the opportunity\n    """\n    form = SQLFORM(db.fs_prospects,fields = [\'interested_location\',\'interested_dates\',\'language_level\',\'referred_by\',\'resume\'])\n    if form.process().accepted:\n        response.flash = \'Thank you, we will keep you updated about this and future opportunities\'\n    elif form.errors:\n        response.flash = \'There was an error on the form\'\n    else:\n        response.flash = \'Welcome, please fill out the information below\'\n    return dict(form=form)\n\ndef fsregister():\n    """\n    Allows approved prospects to register for their project\n    """\n    form = SQLFORM(db.fs_volunteers, fields = [\'opp_location\',\'internship\',\'training_hotel\',\'birthday\',\'emergency_name\',\'emergency_phone\'])\n    if form.process().accepted: #**** next=fsoverview - directs user to an overview page\n        response.flash = \'Thank you, we will be making arrangements for your trip\'\n    elif form.errors:\n        response.flash = \'There was an error on the form\'\n    else:\n        response.flash = \'Welcome, please fill out the information below\'\n    return dict(form=form)\n\ndef fsstudentupdate():\n    """\n    Allows administration to fill out or update additional information about the student\n    """\n    record = db.fs_volunteers(request.args(0)) or redirect(URL(\'index\'))\n    form = SQLFORM(db.fs_volunteers, record)\n    if form.process(next=\'fsshowstudents\').accepted:\n        response.flash = \'Thank you, the student has been updated\'\n    elif form.errors:\n        response.flash = \'There was an error on the form\'\n    else:\n        response.flash = \'Please update the students info\'\n    return dict(form=form)\n\ndef fsshowstudents():\n    """\n    Shows a list of all students\n    **** need to figure out how to filter it\n    """\n    response.flash = \'Please choose a student to edit\'\n    query = (db.fs_volunteers)\n    students = db(query).select()\n    return dict(students = students)\n\nresponse._vars=response._caller(employeedash)\n'
p7
sS'snapshot'
p8
(dp9
S'exception'
p10
(dp11
S'__hash__'
p12
S"<method-wrapper '__hash__' of exceptions.AttributeError object>"
p13
sS'__setattr__'
p14
S"<method-wrapper '__setattr__' of exceptions.AttributeError object>"
p15
sS'__reduce_ex__'
p16
S'<built-in method __reduce_ex__ of exceptions.AttributeError object>'
p17
sS'__getslice__'
p18
S"<method-wrapper '__getslice__' of exceptions.AttributeError object>"
p19
sS'__getitem__'
p20
S"<method-wrapper '__getitem__' of exceptions.AttributeError object>"
p21
sS'__setstate__'
p22
S'<built-in method __setstate__ of exceptions.AttributeError object>'
p23
sS'args'
p24
S'("\'Table\' object has no attribute \'project_name\'",)'
p25
sS'__reduce__'
p26
S'<built-in method __reduce__ of exceptions.AttributeError object>'
p27
sS'__str__'
p28
S"<method-wrapper '__str__' of exceptions.AttributeError object>"
p29
sS'__format__'
p30
S'<built-in method __format__ of exceptions.AttributeError object>'
p31
sS'__getattribute__'
p32
S"<method-wrapper '__getattribute__' of exceptions.AttributeError object>"
p33
sS'__class__'
p34
S"<type 'exceptions.AttributeError'>"
p35
sS'__unicode__'
p36
S'<built-in method __unicode__ of exceptions.AttributeError object>'
p37
sS'__delattr__'
p38
S"<method-wrapper '__delattr__' of exceptions.AttributeError object>"
p39
sS'__subclasshook__'
p40
S'<built-in method __subclasshook__ of type object>'
p41
sS'__repr__'
p42
S"<method-wrapper '__repr__' of exceptions.AttributeError object>"
p43
sS'__dict__'
p44
S'{}'
p45
sS'__sizeof__'
p46
S'<built-in method __sizeof__ of exceptions.AttributeError object>'
p47
sS'__doc__'
p48
S"'Attribute not found.'"
p49
sS'__init__'
p50
S"<method-wrapper '__init__' of exceptions.AttributeError object>"
p51
sS'__new__'
p52
S'<built-in method __new__ of type object>'
p53
ssS'evalue'
p54
S"'Table' object has no attribute 'project_name'"
p55
sS'request'
p56
cgluon.html
XML_unpickle
p57
(S's\x13H\x00\x00<div><table><tr><td style="font-weight:bold;vertical-align:top">ajax</td><td valign="top">:</td><td><div>False</div></td></tr><tr><td style="font-weight:bold;vertical-align:top">application</td><td valign="top">:</td><td><div>siri_admin</div></td></tr><tr><td style="font-weight:bold;vertical-align:top">args</td><td valign="top">:</td><td><div><table></table></div></td></tr><tr><td style="font-weight:bold;vertical-align:top">body</td><td valign="top">:</td><td><div>&lt;cStringIO.StringO object at 0x3032650&gt;</div></td></tr><tr><td style="font-weight:bold;vertical-align:top">cid</td><td valign="top">:</td><td><div>None</div></td></tr><tr><td style="font-weight:bold;vertical-align:top">client</td><td valign="top">:</td><td><div>71.220.187.76</div></td></tr><tr><td style="font-weight:bold;vertical-align:top">controller</td><td valign="top">:</td><td><div>default</div></td></tr><tr><td style="font-weight:bold;vertical-align:top">cookies</td><td valign="top">:</td><td><div><table><tr><td style="font-weight:bold;vertical-align:top">session_id_siri_admin</td><td valign="top">:</td><td><div>71.220.187.76-705bfa90-9272-430b-9a70-c42d7f10869e<table><tr><td style="font-weight:bold;vertical-align:top">comment</td><td valign="top">:</td><td><div></div></td></tr><tr><td style="font-weight:bold;vertical-align:top">domain</td><td valign="top">:</td><td><div></div></td></tr><tr><td style="font-weight:bold;vertical-align:top">expires</td><td valign="top">:</td><td><div></div></td></tr><tr><td style="font-weight:bold;vertical-align:top">httponly</td><td valign="top">:</td><td><div></div></td></tr><tr><td style="font-weight:bold;vertical-align:top">max-age</td><td valign="top">:</td><td><div></div></td></tr><tr><td style="font-weight:bold;vertical-align:top">path</td><td valign="top">:</td><td><div></div></td></tr><tr><td style="font-weight:bold;vertical-align:top">secure</td><td valign="top">:</td><td><div></div></td></tr><tr><td style="font-weight:bold;vertical-align:top">version</td><td valign="top">:</td><td><div></div></td></tr></table></div></td></tr><tr><td style="font-weight:bold;vertical-align:top">sessionid</td><td valign="top">:</td><td><div>dcd6a5f6d0425e8c8b3d0d8483650d53<table><tr><td style="font-weight:bold;vertical-align:top">comment</td><td valign="top">:</td><td><div></div></td></tr><tr><td style="font-weight:bold;vertical-align:top">domain</td><td valign="top">:</td><td><div></div></td></tr><tr><td style="font-weight:bold;vertical-align:top">expires</td><td valign="top">:</td><td><div></div></td></tr><tr><td style="font-weight:bold;vertical-align:top">httponly</td><td valign="top">:</td><td><div></div></td></tr><tr><td style="font-weight:bold;vertical-align:top">max-age</td><td valign="top">:</td><td><div></div></td></tr><tr><td style="font-weight:bold;vertical-align:top">path</td><td valign="top">:</td><td><div></div></td></tr><tr><td style="font-weight:bold;vertical-align:top">secure</td><td valign="top">:</td><td><div></div></td></tr><tr><td style="font-weight:bold;vertical-align:top">version</td><td valign="top">:</td><td><div></div></td></tr></table></div></td></tr></table></div></td></tr><tr><td style="font-weight:bold;vertical-align:top">env</td><td valign="top">:</td><td><div><table><tr><td style="font-weight:bold;vertical-align:top">app_folders</td><td valign="top">:</td><td><div>set([&#x27;/home/SIRI/web2py/applications/siri_admin/&#x27;])</div></td></tr><tr><td style="font-weight:bold;vertical-align:top">applications_parent</td><td valign="top">:</td><td><div>/home/SIRI/web2py</div></td></tr><tr><td style="font-weight:bold;vertical-align:top">content_length</td><td valign="top">:</td><td><div></div></td></tr><tr><td style="font-weight:bold;vertical-align:top">content_type</td><td valign="top">:</td><td><div></div></td></tr><tr><td style="font-weight:bold;vertical-align:top">db_sessions</td><td valign="top">:</td><td><div>set([])</div></td></tr><tr><td style="font-weight:bold;vertical-align:top">debugging</td><td valign="top">:</td><td><div>False</div></td></tr><tr><td style="font-weight:bold;vertical-align:top">document_root</td><td valign="top">:</td><td><div>/usr/share/nginx/html</div></td></tr><tr><td style="font-weight:bold;vertical-align:top">gluon_parent</td><td valign="top">:</td><td><div>/home/SIRI/web2py</div></td></tr><tr><td style="font-weight:bold;vertical-align:top">http_accept</td><td valign="top">:</td><td><div>text/html,application/xhtml+xml,application/xml;q=0.9,*/*;q=0.8</div></td></tr><tr><td style="font-weight:bold;vertical-align:top">http_accept_encoding</td><td valign="top">:</td><td><div>gzip, deflate</div></td></tr><tr><td style="font-weight:bold;vertical-align:top">http_accept_language</td><td valign="top">:</td><td><div>en-US,en;q=0.5</div></td></tr><tr><td style="font-weight:bold;vertical-align:top">http_connection</td><td valign="top">:</td><td><div>close</div></td></tr><tr><td style="font-weight:bold;vertical-align:top">http_cookie</td><td valign="top">:</td><td><div>__utma=133430031.1807339217.1380898194.1381281757.1382478957.4; __utmz=133430031.1380898194.1.1.utmcsr=(direct)|utmccn=(direct)|utmcmd=(none); sessionid=dcd6a5f6d0425e8c8b3d0d8483650d53; __utmb=133430031.1.10.1382478957; __utmc=133430031; session_id_siri_admin=71.220.187.76-705bfa90-9272-430b-9a70-c42d7f10869e</div></td></tr><tr><td style="font-weight:bold;vertical-align:top">http_host</td><td valign="top">:</td><td><div>siri.pythonanywhere.com</div></td></tr><tr><td style="font-weight:bold;vertical-align:top">http_user_agent</td><td valign="top">:</td><td><div>Mozilla/5.0 (Windows NT 6.3; WOW64; rv:24.0) Gecko/20100101 Firefox/24.0</div></td></tr><tr><td style="font-weight:bold;vertical-align:top">http_x_forwarded_for</td><td valign="top">:</td><td><div>71.220.187.76</div></td></tr><tr><td style="font-weight:bold;vertical-align:top">http_x_real_ip</td><td valign="top">:</td><td><div>71.220.187.76</div></td></tr><tr><td style="font-weight:bold;vertical-align:top">https</td><td valign="top">:</td><td><div>on</div></td></tr><tr><td style="font-weight:bold;vertical-align:top">is_jython</td><td valign="top">:</td><td><div>False</div></td></tr><tr><td style="font-weight:bold;vertical-align:top">is_pypy</td><td valign="top">:</td><td><div>False</div></td></tr><tr><td style="font-weight:bold;vertical-align:top">local_hosts</td><td valign="top">:</td><td><div><table><tr><td><div>::ffff:127.0.0.1</div></td></tr><tr><td><div>::1</div></td></tr><tr><td><div>50.19.109.98</div></td></tr><tr><td><div>127.0.0.1</div></td></tr><tr><td><div>glenn-liveweb2</div></td></tr><tr><td><div>siri.pythonanywhere.com</div></td></tr><tr><td><div>localhost</div></td></tr></table></div></td></tr><tr><td style="font-weight:bold;vertical-align:top">path_info</td><td valign="top">:</td><td><div>/siri_admin/default/employeedash</div></td></tr><tr><td style="font-weight:bold;vertical-align:top">query_string</td><td valign="top">:</td><td><div></div></td></tr><tr><td style="font-weight:bold;vertical-align:top">remote_addr</td><td valign="top">:</td><td><div>10.124.237.89</div></td></tr><tr><td style="font-weight:bold;vertical-align:top">remote_port</td><td valign="top">:</td><td><div>47244</div></td></tr><tr><td style="font-weight:bold;vertical-align:top">request_method</td><td valign="top">:</td><td><div>GET</div></td></tr><tr><td style="font-weight:bold;vertical-align:top">request_uri</td><td valign="top">:</td><td><div>/siri_admin/default/employeedash</div></td></tr><tr><td style="font-weight:bold;vertical-align:top">script_name</td><td valign="top">:</td><td><div></div></td></tr><tr><td style="font-weight:bold;vertical-align:top">server_name</td><td valign="top">:</td><td><div>siri.pythonanywhere.com</div></td></tr><tr><td style="font-weight:bold;vertical-align:top">server_port</td><td valign="top">:</td><td><div>443</div></td></tr><tr><td style="font-weight:bold;vertical-align:top">server_protocol</td><td valign="top">:</td><td><div>HTTP/1.1</div></td></tr><tr><td style="font-weight:bold;vertical-align:top">uwsgi_node</td><td valign="top">:</td><td><div>glenn-liveweb2</div></td></tr><tr><td style="font-weight:bold;vertical-align:top">uwsgi_version</td><td valign="top">:</td><td><div>1.9.16</div></td></tr><tr><td style="font-weight:bold;vertical-align:top">web2py_path</td><td valign="top">:</td><td><div>/home/SIRI/web2py</div></td></tr><tr><td style="font-weight:bold;vertical-align:top">web2py_version</td><td valign="top">:</td><td><div>2.5.1-stable+timestamp.2013.06.06.15.39.19</div></td></tr><tr><td style="font-weight:bold;vertical-align:top">wsgi_errors</td><td valign="top">:</td><td><div>&lt;uwsgi_file__bin_user_wsgi_wrapper.ErrorLogWrapper object at 0x2c416d0&gt;</div></td></tr><tr><td style="font-weight:bold;vertical-align:top">wsgi_file_wrapper</td><td valign="top">:</td><td><div>&lt;built-in function uwsgi_sendfile&gt;</div></td></tr><tr><td style="font-weight:bold;vertical-align:top">wsgi_input</td><td valign="top">:</td><td><div>&lt;uwsgi._Input object at 0x7f38f304d750&gt;</div></td></tr><tr><td style="font-weight:bold;vertical-align:top">wsgi_multiprocess</td><td valign="top">:</td><td><div>True</div></td></tr><tr><td style="font-weight:bold;vertical-align:top">wsgi_multithread</td><td valign="top">:</td><td><div>False</div></td></tr><tr><td style="font-weight:bold;vertical-align:top">wsgi_run_once</td><td valign="top">:</td><td><div>False</div></td></tr><tr><td style="font-weight:bold;vertical-align:top">wsgi_url_scheme</td><td valign="top">:</td><td><div>https</div></td></tr><tr><td style="font-weight:bold;vertical-align:top">wsgi_version</td><td valign="top">:</td><td><div><table><tr><td><div>1</div></td></tr><tr><td><div>0</div></td></tr></table></div></td></tr></table></div></td></tr><tr><td style="font-weight:bold;vertical-align:top">extension</td><td valign="top">:</td><td><div>html</div></td></tr><tr><td style="font-weight:bold;vertical-align:top">folder</td><td valign="top">:</td><td><div>/home/SIRI/web2py/applications/siri_admin/</div></td></tr><tr><td style="font-weight:bold;vertical-align:top">function</td><td valign="top">:</td><td><div>employeedash</div></td></tr><tr><td style="font-weight:bold;vertical-align:top">get_vars</td><td valign="top">:</td><td><div><table></table></div></td></tr><tr><td style="font-weight:bold;vertical-align:top">global_settings</td><td valign="top">:</td><td><div><table><tr><td style="font-weight:bold;vertical-align:top">app_folders</td><td valign="top">:</td><td><div>set([&#x27;/home/SIRI/web2py/applications/siri_admin/&#x27;])</div></td></tr><tr><td style="font-weight:bold;vertical-align:top">applications_parent</td><td valign="top">:</td><td><div>/home/SIRI/web2py</div></td></tr><tr><td style="font-weight:bold;vertical-align:top">db_sessions</td><td valign="top">:</td><td><div>set([])</div></td></tr><tr><td style="font-weight:bold;vertical-align:top">debugging</td><td valign="top">:</td><td><div>False</div></td></tr><tr><td style="font-weight:bold;vertical-align:top">gluon_parent</td><td valign="top">:</td><td><div>/home/SIRI/web2py</div></td></tr><tr><td style="font-weight:bold;vertical-align:top">is_jython</td><td valign="top">:</td><td><div>False</div></td></tr><tr><td style="font-weight:bold;vertical-align:top">is_pypy</td><td valign="top">:</td><td><div>False</div></td></tr><tr><td style="font-weight:bold;vertical-align:top">local_hosts</td><td valign="top">:</td><td><div><table><tr><td><div>::ffff:127.0.0.1</div></td></tr><tr><td><div>::1</div></td></tr><tr><td><div>50.19.109.98</div></td></tr><tr><td><div>127.0.0.1</div></td></tr><tr><td><div>glenn-liveweb2</div></td></tr><tr><td><div>siri.pythonanywhere.com</div></td></tr><tr><td><div>localhost</div></td></tr></table></div></td></tr><tr><td style="font-weight:bold;vertical-align:top">web2py_version</td><td valign="top">:</td><td><div>2.5.1-stable+timestamp.2013.06.06.15.39.19</div></td></tr></table></div></td></tr><tr><td style="font-weight:bold;vertical-align:top">is_https</td><td valign="top">:</td><td><div>True</div></td></tr><tr><td style="font-weight:bold;vertical-align:top">is_local</td><td valign="top">:</td><td><div>False</div></td></tr><tr><td style="font-weight:bold;vertical-align:top">is_restful</td><td valign="top">:</td><td><div>False</div></td></tr><tr><td style="font-weight:bold;vertical-align:top">now</td><td valign="top">:</td><td><div>datetime.datetime(2013, 10, 22, 22, 20, 16, 867604)</div></td></tr><tr><td style="font-weight:bold;vertical-align:top">post_vars</td><td valign="top">:</td><td><div><table></table></div></td></tr><tr><td style="font-weight:bold;vertical-align:top">raw_args</td><td valign="top">:</td><td><div></div></td></tr><tr><td style="font-weight:bold;vertical-align:top">raw_extension</td><td valign="top">:</td><td><div>None</div></td></tr><tr><td style="font-weight:bold;vertical-align:top">url</td><td valign="top">:</td><td><div>/siri_admin/default/employeedash</div></td></tr><tr><td style="font-weight:bold;vertical-align:top">utcnow</td><td valign="top">:</td><td><div>datetime.datetime(2013, 10, 22, 22, 20, 16, 867627)</div></td></tr><tr><td style="font-weight:bold;vertical-align:top">uuid</td><td valign="top">:</td><td><div>siri_admin/71.220.187.76.2013-10-22.22-20-16.543f5c79-ab67-4810-9085-9b5470056a44</div></td></tr><tr><td style="font-weight:bold;vertical-align:top">vars</td><td valign="top">:</td><td><div><table></table></div></td></tr><tr><td style="font-weight:bold;vertical-align:top">wsgi</td><td valign="top">:</td><td><div><table><tr><td style="font-weight:bold;vertical-align:top">environ</td><td valign="top">:</td><td><div><table><tr><td style="font-weight:bold;vertical-align:top">CONTENT_LENGTH</td><td valign="top">:</td><td><div></div></td></tr><tr><td style="font-weight:bold;vertical-align:top">CONTENT_TYPE</td><td valign="top">:</td><td><div></div></td></tr><tr><td style="font-weight:bold;vertical-align:top">DOCUMENT_ROOT</td><td valign="top">:</td><td><div>/usr/share/nginx/html</div></td></tr><tr><td style="font-weight:bold;vertical-align:top">HTTPS</td><td valign="top">:</td><td><div>on</div></td></tr><tr><td style="font-weight:bold;vertical-align:top">HTTP_ACCEPT</td><td valign="top">:</td><td><div>text/html,application/xhtml+xml,application/xml;q=0.9,*/*;q=0.8</div></td></tr><tr><td style="font-weight:bold;vertical-align:top">HTTP_ACCEPT_ENCODING</td><td valign="top">:</td><td><div>gzip, deflate</div></td></tr><tr><td style="font-weight:bold;vertical-align:top">HTTP_ACCEPT_LANGUAGE</td><td valign="top">:</td><td><div>en-US,en;q=0.5</div></td></tr><tr><td style="font-weight:bold;vertical-align:top">HTTP_CONNECTION</td><td valign="top">:</td><td><div>close</div></td></tr><tr><td style="font-weight:bold;vertical-align:top">HTTP_COOKIE</td><td valign="top">:</td><td><div>__utma=133430031.1807339217.1380898194.1381281757.1382478957.4; __utmz=133430031.1380898194.1.1.utmcsr=(direct)|utmccn=(direct)|utmcmd=(none); sessionid=dcd6a5f6d0425e8c8b3d0d8483650d53; __utmb=133430031.1.10.1382478957; __utmc=133430031; session_id_siri_admin=71.220.187.76-705bfa90-9272-430b-9a70-c42d7f10869e</div></td></tr><tr><td style="font-weight:bold;vertical-align:top">HTTP_HOST</td><td valign="top">:</td><td><div>siri.pythonanywhere.com</div></td></tr><tr><td style="font-weight:bold;vertical-align:top">HTTP_USER_AGENT</td><td valign="top">:</td><td><div>Mozilla/5.0 (Windows NT 6.3; WOW64; rv:24.0) Gecko/20100101 Firefox/24.0</div></td></tr><tr><td style="font-weight:bold;vertical-align:top">HTTP_X_FORWARDED_FOR</td><td valign="top">:</td><td><div>71.220.187.76</div></td></tr><tr><td style="font-weight:bold;vertical-align:top">HTTP_X_REAL_IP</td><td valign="top">:</td><td><div>71.220.187.76</div></td></tr><tr><td style="font-weight:bold;vertical-align:top">PATH_INFO</td><td valign="top">:</td><td><div>/siri_admin/default/employeedash</div></td></tr><tr><td style="font-weight:bold;vertical-align:top">QUERY_STRING</td><td valign="top">:</td><td><div></div></td></tr><tr><td style="font-weight:bold;vertical-align:top">REMOTE_ADDR</td><td valign="top">:</td><td><div>10.124.237.89</div></td></tr><tr><td style="font-weight:bold;vertical-align:top">REMOTE_PORT</td><td valign="top">:</td><td><div>47244</div></td></tr><tr><td style="font-weight:bold;vertical-align:top">REQUEST_METHOD</td><td valign="top">:</td><td><div>GET</div></td></tr><tr><td style="font-weight:bold;vertical-align:top">REQUEST_URI</td><td valign="top">:</td><td><div>/siri_admin/default/employeedash</div></td></tr><tr><td style="font-weight:bold;vertical-align:top">SCRIPT_NAME</td><td valign="top">:</td><td><div></div></td></tr><tr><td style="font-weight:bold;vertical-align:top">SERVER_NAME</td><td valign="top">:</td><td><div>siri.pythonanywhere.com</div></td></tr><tr><td style="font-weight:bold;vertical-align:top">SERVER_PORT</td><td valign="top">:</td><td><div>443</div></td></tr><tr><td style="font-weight:bold;vertical-align:top">SERVER_PROTOCOL</td><td valign="top">:</td><td><div>HTTP/1.1</div></td></tr><tr><td style="font-weight:bold;vertical-align:top">uwsgi.node</td><td valign="top">:</td><td><div>glenn-liveweb2</div></td></tr><tr><td style="font-weight:bold;vertical-align:top">uwsgi.version</td><td valign="top">:</td><td><div>1.9.16</div></td></tr><tr><td style="font-weight:bold;vertical-align:top">wsgi.errors</td><td valign="top">:</td><td><div>&lt;uwsgi_file__bin_user_wsgi_wrapper.ErrorLogWrapper object at 0x2c416d0&gt;</div></td></tr><tr><td style="font-weight:bold;vertical-align:top">wsgi.file_wrapper</td><td valign="top">:</td><td><div>&lt;built-in function uwsgi_sendfile&gt;</div></td></tr><tr><td style="font-weight:bold;vertical-align:top">wsgi.input</td><td valign="top">:</td><td><div>&lt;cStringIO.StringO object at 0x3032650&gt;</div></td></tr><tr><td style="font-weight:bold;vertical-align:top">wsgi.multiprocess</td><td valign="top">:</td><td><div>True</div></td></tr><tr><td style="font-weight:bold;vertical-align:top">wsgi.multithread</td><td valign="top">:</td><td><div>False</div></td></tr><tr><td style="font-weight:bold;vertical-align:top">wsgi.run_once</td><td valign="top">:</td><td><div>False</div></td></tr><tr><td style="font-weight:bold;vertical-align:top">wsgi.url_scheme</td><td valign="top">:</td><td><div>https</div></td></tr><tr><td style="font-weight:bold;vertical-align:top">wsgi.version</td><td valign="top">:</td><td><div>1</div></td></tr></table></div></td></tr></table></div></td></tr></table></div>'
tRp58
sS'frames'
p59
(lp60
(dp61
S'file'
p62
S'/home/SIRI/web2py/gluon/restricted.py'
p63
sS'dump'
p64
(dp65
S'environment'
p66
S"{'A': <class 'gluon.html.A'>, 'ANY_OF': <class 'gluon.validators.ANY_OF'>, 'Auth': <class 'gluon.tools.Auth'>, 'B': <class 'gluon.html.B'>, 'BEAUTIFY': <class 'gluon.html.BEAUTIFY'>, 'BODY': <class 'gluon.html.BODY'>, 'BR': <class 'gluon.html.BR'>, 'BUTTON': <class 'gluon.html.BUTTON'>, 'CAT': <class 'gluon.html.CAT'>, 'CENTER': <class 'gluon.html.CENTER'>, ...}"
p67
sS'ccode'
p68
S'<code object <module> at 0x2f6b7b0, file "/home/...ions/siri_admin/controllers/default.py", line 13>'
p69
ssS'lnum'
p70
I212
sS'lines'
p71
(dp72
I207
S'    try:'
p73
sI208
S'        if isinstance(code, types.CodeType):'
p74
sI209
S'            ccode = code'
p75
sI210
S'        else:'
p76
sI211
S'            ccode = compile2(code, layer)'
p77
sI212
S'        exec ccode in environment'
p78
sI213
S'    except HTTP:'
p79
sI214
S'        raise'
p80
sI215
S'    except RestrictedError:'
p81
sI216
S'        # do not encapsulate (obfuscate) the original RestrictedError'
p82
ssS'call'
p83
S"(code='# -*- coding: utf-8 -*-\\n# this file is released ...)\\n\\nresponse._vars=response._caller(employeedash)\\n', environment={'A': <class 'gluon.html.A'>, 'ANY_OF': <class 'gluon.validators.ANY_OF'>, 'Auth': <class 'gluon.tools.Auth'>, 'B': <class 'gluon.html.B'>, 'BEAUTIFY': <class 'gluon.html.BEAUTIFY'>, 'BODY': <class 'gluon.html.BODY'>, 'BR': <class 'gluon.html.BR'>, 'BUTTON': <class 'gluon.html.BUTTON'>, 'CAT': <class 'gluon.html.CAT'>, 'CENTER': <class 'gluon.html.CENTER'>, ...}, layer='/home/SIRI/web2py/applications/siri_admin/controllers/default.py')"
p84
sS'func'
p85
S'restricted'
p86
sa(dp87
g62
S'/home/SIRI/web2py/applications/siri_admin/controllers/default.py'
p88
sg64
(dp89
sg70
I424
sg71
(dp90
I416
S'    Shows a list of all students'
p91
sI417
S'    **** need to figure out how to filter it'
p92
sI418
S'    """'
p93
sI419
S"    response.flash = 'Please choose a student to edit'"
p94
sI420
S'    query = (db.fs_volunteers)'
p95
sI421
S'    students = db(query).select()'
p96
sI422
S'    return dict(students = students)'
p97
sI413
S''
sI414
S'def fsshowstudents():'
p98
sI415
S'    """'
p99
ssg83
S'()'
p100
sg85
S'<module>'
p101
sa(dp102
g62
S'/home/SIRI/web2py/gluon/globals.py'
p103
sg64
(dp104
S'self'
p105
S'undefined'
p106
sS'f'
S'<function employeedash>'
p107
ssg70
I194
sg71
(dp108
I192
S"        self.delimiters = ('{{', '}}')"
p109
sI193
S'        self._vars = None'
p110
sI194
S'        self._caller = lambda f: f()'
p111
sI195
S'        self._view_environment = None'
p112
sI196
S'        self._custom_commit = None'
p113
sI197
S'        self._custom_rollback = None'
p114
sI198
S''
sI189
S'        self.menu = []             # used by the default view layout'
p115
sI190
S'        self.files = []            # used by web2py_ajax.html'
p116
sI191
S'        self.generic_patterns = []  # patterns to allow generic views'
p117
ssg83
S'(f=<function employeedash>)'
p118
sg85
S'<lambda>'
p119
sa(dp120
g62
S'/home/SIRI/web2py/gluon/tools.py'
p121
sg64
(dp122
S'action'
p123
S'<function employeedash>'
p124
sS'a'
S'()'
p125
sS'b'
g45
ssg70
I3022
sg71
(dp126
I3017
S'                    flag = condition'
p127
sI3018
S'                if not flag:'
p128
sI3019
S'                    current.session.flash = self.messages.access_denied'
p129
sI3020
S'                    return call_or_redirect('
p130
sI3021
S'                        self.settings.on_failed_authorization)'
p131
sI3022
S'                return action(*a, **b)'
p132
sI3023
S'            f.__doc__ = action.__doc__'
p133
sI3024
S'            f.__name__ = action.__name__'
p134
sI3025
S'            f.__dict__.update(action.__dict__)'
p135
sI3026
S'            return f'
p136
ssg83
S'(*a=(), **b={})'
p137
sg85
S'f'
sa(dp138
g62
S'/home/SIRI/web2py/applications/siri_admin/controllers/default.py'
p139
sg64
(dp140
S'global db'
p141
S'<DAL uri="sqlite://storage.sqlite">'
p142
sS'global SQLFORM'
p143
S"<class 'gluon.sqlhtml.SQLFORM'>"
p144
sS'db.timeclock'
p145
S'<Table timeclock (id,project,work_date,time_in,time_out,description,hours,usr_id)>'
p146
sS'form'
p147
g106
ssg70
I262
sg71
(dp148
I257
S'@auth.requires_login()'
p149
sI258
S'def employeedash():'
p150
sI259
S'    """'
p151
sI260
S'    Default page for employees to add/view time'
p152
sI261
S'    """'
p153
sI262
S'    form = SQLFORM(db.timeclock)'
p154
sI263
S'    if form.process().accepted:'
p155
sI264
S"        response.flash = 'Thank you for submitting your time'"
p156
sI265
S'    elif form.errors:'
p157
sI266
S"        response.flash = 'There was an error on the form'"
p158
ssg83
S'()'
p159
sg85
S'employeedash'
p160
sa(dp161
g62
S'/home/SIRI/web2py/gluon/sqlhtml.py'
p162
sg64
(dp163
S'default'
p164
S'None'
p165
sS'self.widgets.options.widget'
p166
S"<bound method type.widget of <class 'gluon.sqlhtml.OptionsWidget'>>"
p167
sS'self'
p168
S'<gluon.sqlhtml.SQLFORM object>'
p169
sS'inp'
p170
g106
sS'self.widgets'
p171
S"<Storage {'multiple': <class 'gluon.sqlhtml.Mult...ss 'gluon.sqlhtml.OptionsWidget'>, 'blob': None}>"
p172
sS'field'
p173
S'<gluon.dal.Field object>'
p174
sS'self.widgets.options'
p175
S"<class 'gluon.sqlhtml.OptionsWidget'>"
p176
ssg70
I1140
sg71
(dp177
I1135
S"                    inpval = 'checked'"
p178
sI1136
S'                else:'
p179
sI1137
S"                    inpval = ''"
p180
sI1138
S'            elif OptionsWidget.has_options(field):'
p181
sI1139
S'                if not field.requires.multiple:'
p182
sI1140
S'                    inp = self.widgets.options.widget(field, default)'
p183
sI1141
S'                else:'
p184
sI1142
S'                    inp = self.widgets.multiple.widget(field, default)'
p185
sI1143
S'                if fieldname in keepopts:'
p186
sI1144
S"                    inpval = TAG[''](*inp.components)"
p187
ssg83
S"(self=<gluon.sqlhtml.SQLFORM object>, table=<Table timeclock (id,project,work_date,time_in,time_out,description,hours,usr_id)>, record=None, deletable=False, linkto=None, upload=None, fields=['id', 'project', 'work_date', 'time_in', 'time_out', 'description', 'hours'], labels=None, col3={}, submit_button='Submit', delete_label='Check to delete', showid=True, readonly=False, comments=True, keepopts=[], ignore_rw=False, record_id=None, formstyle='table3cols', buttons=['submit'], separator=': ', **attributes={})"
p188
sg85
g50
sa(dp189
g62
S'/home/SIRI/web2py/gluon/sqlhtml.py'
p190
sg64
(dp191
S'].options'
p192
g106
sS'requires'
p193
S'[<gluon.validators.IS_IN_DB object>]'
p194
sS'options'
p195
g106
ssg70
I278
sg71
(dp196
I273
S'        requires = field.requires'
p197
sI274
S'        if not isinstance(requires, (list, tuple)):'
p198
sI275
S'            requires = [requires]'
p199
sI276
S'        if requires:'
p200
sI277
S"            if hasattr(requires[0], 'options'):"
p201
sI278
S'                options = requires[0].options()'
p202
sI279
S'            else:'
p203
sI280
S'                raise SyntaxError('
p204
sI281
S"                    'widget cannot determine options of %s' % field)"
p205
sI282
S'        opts = [OPTION(v, _value=k) for (k, v) in options]'
p206
ssg83
S"(cls=<class 'gluon.sqlhtml.OptionsWidget'>, field=<gluon.dal.Field object>, value=None, **attributes={})"
p207
sg85
S'widget'
p208
sa(dp209
g62
S'/home/SIRI/web2py/gluon/validators.py'
p210
sg64
(dp211
S'self'
p212
S'<gluon.validators.IS_IN_DB object>'
p213
sS'self.build_set'
p214
S'<bound method IS_IN_DB.build_set of <gluon.validators.IS_IN_DB object>>'
p215
ssg70
I553
sg71
(dp216
I548
S'            self.labels = [self.label % r for r in records]'
p217
sI549
S'        else:'
p218
sI550
S'            self.labels = [self.label(r) for r in records]'
p219
sI551
S''
sI552
S'    def options(self, zero=True):'
p220
sI553
S'        self.build_set()'
p221
sI554
S'        items = [(k, self.labels[i]) for (i, k) in enumerate(self.theset)]'
p222
sI555
S'        if self.sort:'
p223
sI556
S'            items.sort(options_sorter)'
p224
sI557
S'        if zero and not self.zero is None and not self.multiple:'
p225
ssg83
S'(self=<gluon.validators.IS_IN_DB object>, zero=True)'
p226
sg85
S'options'
p227
sa(dp228
g62
S'/home/SIRI/web2py/gluon/validators.py'
p229
sg64
(dp230
S'self.fields'
p231
S"['project_name']"
p232
sS'fields'
p233
g106
sS'k'
S"'project_name'"
p234
sS'self'
p235
S'<gluon.validators.IS_IN_DB object>'
p236
sS'table'
p237
S'<Table siri_projects (id,name,description,coordi..._loc,num_students,reviewed,contracted,is_active)>'
p238
ssg70
I529
sg71
(dp239
I524
S'    def build_set(self):'
p240
sI525
S'        table = self.dbset.db[self.ktable]'
p241
sI526
S"        if self.fields == 'all':"
p242
sI527
S'            fields = [f for f in table]'
p243
sI528
S'        else:'
p244
sI529
S'            fields = [table[k] for k in self.fields]'
p245
sI530
S'        ignore = (FieldVirtual,FieldMethod)'
p246
sI531
S'        fields = filter(lambda f:not isinstance(f,ignore), fields)'
p247
sI532
S"        if self.dbset.db._dbname != 'gae':"
p248
sI533
S'            orderby = self.orderby or reduce(lambda a, b: a | b, fields)'
p249
ssg83
S'(self=<gluon.validators.IS_IN_DB object>)'
p250
sg85
S'build_set'
p251
sa(dp252
g62
S'/home/SIRI/web2py/gluon/dal.py'
p253
sg64
(dp254
S'builtinstr'
p255
S"<type 'str'>"
p256
sS'self'
p257
S'<Table siri_projects (id,name,description,coordi..._loc,num_students,reviewed,contracted,is_active)>'
p258
sS'global ogetattr'
p259
S"<slot wrapper '__getattribute__' of 'object' objects>"
p260
sS'key'
p261
S"'project_name'"
p262
ssg70
I8414
sg71
(dp263
I8416
S'    def __call__(self, key=DEFAULT, **kwargs):'
p264
sI8417
S"        for_update = kwargs.get('_for_update',False)"
p265
sI8418
S"        if '_for_update' in kwargs: del kwargs['_for_update']"
p266
sI8409
S'                return rows[0]'
p267
sI8410
S'            return None'
p268
sI8411
S"        elif str(key).isdigit() or 'google' in DRIVERS and isinstance(key, Key):"
p269
sI8412
S'            return self._db(self._id == key).select(limitby=(0,1), orderby_on_limitby=False).first()'
p270
sI8413
S'        elif key:'
p271
sI8414
S'            return ogetattr(self, str(key))'
p272
sI8415
S''
ssg83
S"(self=<Table siri_projects (id,name,description,coordi..._loc,num_students,reviewed,contracted,is_active)>, key='project_name')"
p273
sg85
g20
sasS'pyver'
p274
S'Python 2.7.4: /usr/local/bin/uwsgi (prefix: /usr)'
p275
sS'session'
p276
g57
(S's\xed\x07\x00\x00<div><table><tr><td style="font-weight:bold;vertical-align:top">auth</td><td valign="top">:</td><td><div><table><tr><td style="font-weight:bold;vertical-align:top">expiration</td><td valign="top">:</td><td><div>3600</div></td></tr><tr><td style="font-weight:bold;vertical-align:top">hmac_key</td><td valign="top">:</td><td><div>2ba37172-e16f-4c4a-b22b-38bf54189844</div></td></tr><tr><td style="font-weight:bold;vertical-align:top">last_visit</td><td valign="top">:</td><td><div>datetime.datetime(2013, 10, 22, 22, 20, 16, 867604)</div></td></tr><tr><td style="font-weight:bold;vertical-align:top">remember</td><td valign="top">:</td><td><div>False</div></td></tr><tr><td style="font-weight:bold;vertical-align:top">user</td><td valign="top">:</td><td><div><table><tr><td style="font-weight:bold;vertical-align:top">email</td><td valign="top">:</td><td><div>evancaldwell@yahoo.com</div></td></tr><tr><td style="font-weight:bold;vertical-align:top">first_name</td><td valign="top">:</td><td><div>Evan</div></td></tr><tr><td style="font-weight:bold;vertical-align:top">id</td><td valign="top">:</td><td><div>1L</div></td></tr><tr><td style="font-weight:bold;vertical-align:top">last_name</td><td valign="top">:</td><td><div>Caldwell</div></td></tr><tr><td style="font-weight:bold;vertical-align:top">registration_id</td><td valign="top">:</td><td><div></div></td></tr><tr><td style="font-weight:bold;vertical-align:top">registration_key</td><td valign="top">:</td><td><div></div></td></tr><tr><td style="font-weight:bold;vertical-align:top">reset_password_key</td><td valign="top">:</td><td><div></div></td></tr></table></div></td></tr><tr><td style="font-weight:bold;vertical-align:top">user_groups</td><td valign="top">:</td><td><div><table><tr><td style="font-weight:bold;vertical-align:top">1</td><td valign="top">:</td><td><div>user_1</div></td></tr></table></div></td></tr></table></div></td></tr><tr><td style="font-weight:bold;vertical-align:top">flash</td><td valign="top">:</td><td><div>None</div></td></tr></table></div>'
tRp277
sS'etype'
p278
S"<type 'exceptions.AttributeError'>"
p279
sS'date'
p280
S'Tue Oct 22 22:20:18 2013'
p281
sS'response'
p282
g57
(S's\xd2,\x00\x00<div><table><tr><td style="font-weight:bold;vertical-align:top">body</td><td valign="top">:</td><td><div>&lt;cStringIO.StringO object at 0x3210148&gt;</div></td></tr><tr><td style="font-weight:bold;vertical-align:top">cookies</td><td valign="top">:</td><td><div><table><tr><td style="font-weight:bold;vertical-align:top">session_id_siri_admin</td><td valign="top">:</td><td><div>71.220.187.76-705bfa90-9272-430b-9a70-c42d7f10869e<table><tr><td style="font-weight:bold;vertical-align:top">comment</td><td valign="top">:</td><td><div></div></td></tr><tr><td style="font-weight:bold;vertical-align:top">domain</td><td valign="top">:</td><td><div></div></td></tr><tr><td style="font-weight:bold;vertical-align:top">expires</td><td valign="top">:</td><td><div></div></td></tr><tr><td style="font-weight:bold;vertical-align:top">httponly</td><td valign="top">:</td><td><div></div></td></tr><tr><td style="font-weight:bold;vertical-align:top">max-age</td><td valign="top">:</td><td><div></div></td></tr><tr><td style="font-weight:bold;vertical-align:top">path</td><td valign="top">:</td><td><div>/</div></td></tr><tr><td style="font-weight:bold;vertical-align:top">secure</td><td valign="top">:</td><td><div></div></td></tr><tr><td style="font-weight:bold;vertical-align:top">version</td><td valign="top">:</td><td><div></div></td></tr></table></div></td></tr></table></div></td></tr><tr><td style="font-weight:bold;vertical-align:top">delimiters</td><td valign="top">:</td><td><div><table><tr><td><div>{{</div></td></tr><tr><td><div>}}</div></td></tr></table></div></td></tr><tr><td style="font-weight:bold;vertical-align:top">files</td><td valign="top">:</td><td><div><table></table></div></td></tr><tr><td style="font-weight:bold;vertical-align:top">flash</td><td valign="top">:</td><td><div></div></td></tr><tr><td style="font-weight:bold;vertical-align:top">generic_patterns</td><td valign="top">:</td><td><div><table></table></div></td></tr><tr><td style="font-weight:bold;vertical-align:top">google_analytics_id</td><td valign="top">:</td><td><div>None</div></td></tr><tr><td style="font-weight:bold;vertical-align:top">headers</td><td valign="top">:</td><td><div><table><tr><td style="font-weight:bold;vertical-align:top">X-Powered-By</td><td valign="top">:</td><td><div>web2py</div></td></tr></table></div></td></tr><tr><td style="font-weight:bold;vertical-align:top">logo</td><td valign="top">:</td><td><div><a class="brand" href="/siri_admin/default/clockadmin"><b>SIRI</b>&trade;&nbsp;</a></div></td></tr><tr><td style="font-weight:bold;vertical-align:top">menu</td><td valign="top">:</td><td><div><table><tr><td><div><table><tr><td><div>Home</div></td></tr><tr><td><div>False</div></td></tr><tr><td><div>/siri_admin/default/index</div></td></tr><tr><td><div><table></table></div></td></tr></table></div></td></tr><tr><td><div><table><tr><td><div><span class="highlighted">web2py</span></div></td></tr><tr><td><div>False</div></td></tr><tr><td><div>http://web2py.com</div></td></tr><tr><td><div><table><tr><td><div><table><tr><td><div>My Sites</div></td></tr><tr><td><div>False</div></td></tr><tr><td><div>/admin/default/site</div></td></tr></table></div></td></tr><tr><td><div><table><tr><td><div>This App</div></td></tr><tr><td><div>False</div></td></tr><tr><td><div>/admin/default/design/siri_admin</div></td></tr><tr><td><div>[(&lt;lazyT &#x27;Controller&#x27;&gt;, False, &#x27;/admin/default/edit/siri_admin/controllers/default.py&#x27;), (&lt;lazyT &#x27;View&#x27;&gt;, False, &#x27;/admin/default/edit/siri_admin/views/default/employeedash.html&#x27;), (&lt;lazyT &#x27;Layout&#x27;&gt;, False, &#x27;/admin/default/edit/siri_admin/views/layout.html&#x27;), (&lt;lazyT &#x27;Stylesheet&#x27;&gt;, False, &#x27;/admin/default/edit/siri_admin/static/css/web2py.css&#x27;), (&lt;lazyT &#x27;DB Model&#x27;&gt;, False, &#x27;/admin/default/edit/siri_admin/models/db.py&#x27;), (&lt;lazyT &#x27;Menu Model&#x27;&gt;, False, &#x27;/admin/default/edit/siri_admin/models/menu.py&#x27;), (&lt;lazyT &#x27;Database&#x27;&gt;, False, &#x27;/siri_admin/appadmin/index&#x27;), (&lt;lazyT &#x27;Errors&#x27;&gt;, False, &#x27;/admin/default/errors/siri_admin&#x27;), (&lt;lazyT &#x27;About&#x27;&gt;, False, &#x27;/admin/default/about/siri_admin&#x27;)]</div></td></tr></table></div></td></tr><tr><td><div><table><tr><td><div>web2py.com</div></td></tr><tr><td><div>False</div></td></tr><tr><td><div>http://www.web2py.com</div></td></tr><tr><td><div>[(&lt;lazyT &#x27;Download&#x27;&gt;, False, &#x27;http://www.web2py.com/examples/default/download&#x27;), (&lt;lazyT &#x27;Support&#x27;&gt;, False, &#x27;http://www.web2py.com/examples/default/support&#x27;), (&lt;lazyT &#x27;Demo&#x27;&gt;, False, &#x27;http://web2py.com/demo_admin&#x27;), (&lt;lazyT &#x27;Quick Examples&#x27;&gt;, False, &#x27;http://web2py.com/examples/default/examples&#x27;), (&lt;lazyT &#x27;FAQ&#x27;&gt;, False, &#x27;http://web2py.com/AlterEgo&#x27;), (&lt;lazyT &#x27;Videos&#x27;&gt;, False, &#x27;http://www.web2py.com/examples/default/videos/&#x27;), (&lt;lazyT &#x27;Free Applications&#x27;&gt;, False, &#x27;http://web2py.com/appliances&#x27;), (&lt;lazyT &#x27;Plugins&#x27;&gt;, False, &#x27;http://web2py.com/plugins&#x27;), (&lt;lazyT &#x27;Layouts&#x27;&gt;, False, &#x27;http://web2py.com/layouts&#x27;), (&lt;lazyT &#x27;Recipes&#x27;&gt;, False, &#x27;http://web2pyslices.com/&#x27;), (&lt;lazyT &#x27;Semantic&#x27;&gt;, False, &#x27;http://web2py.com/semantic&#x27;)]</div></td></tr></table></div></td></tr><tr><td><div><table><tr><td><div>Documentation</div></td></tr><tr><td><div>False</div></td></tr><tr><td><div>http://www.web2py.com/book</div></td></tr><tr><td><div>[(&lt;lazyT &#x27;Preface&#x27;&gt;, False, &#x27;http://www.web2py.com/book/default/chapter/00&#x27;), (&lt;lazyT &#x27;Introduction&#x27;&gt;, False, &#x27;http://www.web2py.com/book/default/chapter/01&#x27;), (&lt;lazyT &#x27;Python&#x27;&gt;, False, &#x27;http://www.web2py.com/book/default/chapter/02&#x27;), (&lt;lazyT &#x27;Overview&#x27;&gt;, False, &#x27;http://www.web2py.com/book/default/chapter/03&#x27;), (&lt;lazyT &#x27;The Core&#x27;&gt;, False, &#x27;http://www.web2py.com/book/default/chapter/04&#x27;), (&lt;lazyT &#x27;The Views&#x27;&gt;, False, &#x27;http://www.web2py.com/book/default/chapter/05&#x27;), (&lt;lazyT &#x27;Database&#x27;&gt;, False, &#x27;http://www.web2py.com/book/default/chapter/06&#x27;), (&lt;lazyT &#x27;Forms and Validators&#x27;&gt;, False, &#x27;http://www.web2py.com/book/default/chapter/07&#x27;), (&lt;lazyT &#x27;Email and SMS&#x27;&gt;, False, &#x27;http://www.web2py.com/book/default/chapter/08&#x27;), (&lt;lazyT &#x27;Access Control&#x27;&gt;, False, &#x27;http://www.web2py.com/book/default/chapter/09&#x27;), (&lt;lazyT &#x27;Services&#x27;&gt;, False, &#x27;http://www.web2py.com/book/default/chapter/10&#x27;), (&lt;lazyT &#x27;Ajax Recipes&#x27;&gt;, False, &#x27;http://www.web2py.com/book/default/chapter/11&#x27;), (&lt;lazyT &#x27;Components and Plugins&#x27;&gt;, False, &#x27;http://www.web2py.com/book/default/chapter/12&#x27;), (&lt;lazyT &#x27;Deployment Recipes&#x27;&gt;, False, &#x27;http://www.web2py.com/book/default/chapter/13&#x27;), (&lt;lazyT &#x27;Other Recipes&#x27;&gt;, False, &#x27;http://www.web2py.com/book/default/chapter/14&#x27;), (&lt;lazyT &#x27;Buy this book&#x27;&gt;, False, &#x27;http://stores.lulu.com/web2py&#x27;)]</div></td></tr></table></div></td></tr><tr><td><div><table><tr><td><div>Community</div></td></tr><tr><td><div>False</div></td></tr><tr><td><div>None</div></td></tr><tr><td><div>[(&lt;lazyT &#x27;Groups&#x27;&gt;, False, &#x27;http://www.web2py.com/examples/default/usergroups&#x27;), (&lt;lazyT &#x27;Twitter&#x27;&gt;, False, &#x27;http://twitter.com/web2py&#x27;), (&lt;lazyT &#x27;Live Chat&#x27;&gt;, False, &#x27;http://webchat.freenode.net/?channels=web2py&#x27;)]</div></td></tr></table></div></td></tr><tr><td><div><table><tr><td><div>Plugins</div></td></tr><tr><td><div>False</div></td></tr><tr><td><div>None</div></td></tr><tr><td><div>[(&#x27;plugin_wiki&#x27;, False, &#x27;http://web2py.com/examples/default/download&#x27;), (&lt;lazyT &#x27;Other Plugins&#x27;&gt;, False, &#x27;http://web2py.com/plugins&#x27;), (&lt;lazyT &#x27;Layout Plugins&#x27;&gt;, False, &#x27;http://web2py.com/layouts&#x27;)]</div></td></tr></table></div></td></tr></table></div></td></tr></table></div></td></tr></table></div></td></tr><tr><td style="font-weight:bold;vertical-align:top">meta</td><td valign="top">:</td><td><div><table><tr><td style="font-weight:bold;vertical-align:top">author</td><td valign="top">:</td><td><div>Evan Caldwell &lt;evancaldwell@yahoo.com&gt;</div></td></tr><tr><td style="font-weight:bold;vertical-align:top">description</td><td valign="top">:</td><td><div>A time clock for SIRI employees</div></td></tr><tr><td style="font-weight:bold;vertical-align:top">generator</td><td valign="top">:</td><td><div>Web2py Web Framework</div></td></tr><tr><td style="font-weight:bold;vertical-align:top">keywords</td><td valign="top">:</td><td><div>SIRI, time, clock</div></td></tr></table></div></td></tr><tr><td style="font-weight:bold;vertical-align:top">models_to_run</td><td valign="top">:</td><td><div><table><tr><td><div>^\\w+\\.py$</div></td></tr><tr><td><div>^default/\\w+\\.py$</div></td></tr><tr><td><div>^default/employeedash/\\w+\\.py$</div></td></tr></table></div></td></tr><tr><td style="font-weight:bold;vertical-align:top">postprocessing</td><td valign="top">:</td><td><div><table></table></div></td></tr><tr><td style="font-weight:bold;vertical-align:top">session_cookie_expires</td><td valign="top">:</td><td><div>None</div></td></tr><tr><td style="font-weight:bold;vertical-align:top">session_data_name</td><td valign="top">:</td><td><div>session_data_siri_admin</div></td></tr><tr><td style="font-weight:bold;vertical-align:top">session_file</td><td valign="top">:</td><td><div>&lt;open file &#x27;/home/SIRI/web2py/applications/siri_admin/sessions/71.220.187.76-705bfa90-9272-430b-9a70-c42d7f10869e&#x27;, mode &#x27;rb+&#x27; at 0x3098b70&gt;</div></td></tr><tr><td style="font-weight:bold;vertical-align:top">session_filename</td><td valign="top">:</td><td><div>/home/SIRI/web2py/applications/siri_admin/sessions/71.220.187.76-705bfa90-9272-430b-9a70-c42d7f10869e</div></td></tr><tr><td style="font-weight:bold;vertical-align:top">session_id</td><td valign="top">:</td><td><div>71.220.187.76-705bfa90-9272-430b-9a70-c42d7f10869e</div></td></tr><tr><td style="font-weight:bold;vertical-align:top">session_id_name</td><td valign="top">:</td><td><div>session_id_siri_admin</div></td></tr><tr><td style="font-weight:bold;vertical-align:top">session_locked</td><td valign="top">:</td><td><div>True</div></td></tr><tr><td style="font-weight:bold;vertical-align:top">session_new</td><td valign="top">:</td><td><div>False</div></td></tr><tr><td style="font-weight:bold;vertical-align:top">session_storage_type</td><td valign="top">:</td><td><div>file</div></td></tr><tr><td style="font-weight:bold;vertical-align:top">status</td><td valign="top">:</td><td><div>200</div></td></tr><tr><td style="font-weight:bold;vertical-align:top">subtitle</td><td valign="top">:</td><td><div>customize me!</div></td></tr><tr><td style="font-weight:bold;vertical-align:top">title</td><td valign="top">:</td><td><div>SIRI Admin</div></td></tr><tr><td style="font-weight:bold;vertical-align:top">view</td><td valign="top">:</td><td><div>default/employeedash.html</div></td></tr></table></div>'
tRp283
sS'locals'
p284
(dp285
S'self'
p286
S'<Table siri_projects (id,name,description,coordi..._loc,num_students,reviewed,contracted,is_active)>'
p287
sS'key'
p288
S"'project_name'"
p289
sssS'traceback'
p290
S'Traceback (most recent call last):\n  File "/home/SIRI/web2py/gluon/restricted.py", line 212, in restricted\n    exec ccode in environment\n  File "/home/SIRI/web2py/applications/siri_admin/controllers/default.py", line 424, in <module>\n  File "/home/SIRI/web2py/gluon/globals.py", line 194, in <lambda>\n    self._caller = lambda f: f()\n  File "/home/SIRI/web2py/gluon/tools.py", line 3022, in f\n    return action(*a, **b)\n  File "/home/SIRI/web2py/applications/siri_admin/controllers/default.py", line 262, in employeedash\n    form = SQLFORM(db.timeclock)\n  File "/home/SIRI/web2py/gluon/sqlhtml.py", line 1140, in __init__\n    inp = self.widgets.options.widget(field, default)\n  File "/home/SIRI/web2py/gluon/sqlhtml.py", line 278, in widget\n    options = requires[0].options()\n  File "/home/SIRI/web2py/gluon/validators.py", line 553, in options\n    self.build_set()\n  File "/home/SIRI/web2py/gluon/validators.py", line 529, in build_set\n    fields = [table[k] for k in self.fields]\n  File "/home/SIRI/web2py/gluon/dal.py", line 8414, in __getitem__\n    return ogetattr(self, str(key))\nAttributeError: \'Table\' object has no attribute \'project_name\'\n'
p291
s.